
apps/example_mayo_1:     file format elf64-x86-64


Disassembly of section .init:

0000000000001000 <_init>:
    1000:	f3 0f 1e fa          	endbr64
    1004:	48 83 ec 08          	sub    $0x8,%rsp
    1008:	48 8b 05 d9 7f 01 00 	mov    0x17fd9(%rip),%rax        # 18fe8 <__gmon_start__@Base>
    100f:	48 85 c0             	test   %rax,%rax
    1012:	74 02                	je     1016 <_init+0x16>
    1014:	ff d0                	call   *%rax
    1016:	48 83 c4 08          	add    $0x8,%rsp
    101a:	c3                   	ret

Disassembly of section .plt:

0000000000001020 <.plt>:
    1020:	ff 35 32 7f 01 00    	push   0x17f32(%rip)        # 18f58 <_GLOBAL_OFFSET_TABLE_+0x8>
    1026:	ff 25 34 7f 01 00    	jmp    *0x17f34(%rip)        # 18f60 <_GLOBAL_OFFSET_TABLE_+0x10>
    102c:	0f 1f 40 00          	nopl   0x0(%rax)
    1030:	f3 0f 1e fa          	endbr64
    1034:	68 00 00 00 00       	push   $0x0
    1039:	e9 e2 ff ff ff       	jmp    1020 <_init+0x20>
    103e:	66 90                	xchg   %ax,%ax
    1040:	f3 0f 1e fa          	endbr64
    1044:	68 01 00 00 00       	push   $0x1
    1049:	e9 d2 ff ff ff       	jmp    1020 <_init+0x20>
    104e:	66 90                	xchg   %ax,%ax
    1050:	f3 0f 1e fa          	endbr64
    1054:	68 02 00 00 00       	push   $0x2
    1059:	e9 c2 ff ff ff       	jmp    1020 <_init+0x20>
    105e:	66 90                	xchg   %ax,%ax
    1060:	f3 0f 1e fa          	endbr64
    1064:	68 03 00 00 00       	push   $0x3
    1069:	e9 b2 ff ff ff       	jmp    1020 <_init+0x20>
    106e:	66 90                	xchg   %ax,%ax
    1070:	f3 0f 1e fa          	endbr64
    1074:	68 04 00 00 00       	push   $0x4
    1079:	e9 a2 ff ff ff       	jmp    1020 <_init+0x20>
    107e:	66 90                	xchg   %ax,%ax
    1080:	f3 0f 1e fa          	endbr64
    1084:	68 05 00 00 00       	push   $0x5
    1089:	e9 92 ff ff ff       	jmp    1020 <_init+0x20>
    108e:	66 90                	xchg   %ax,%ax
    1090:	f3 0f 1e fa          	endbr64
    1094:	68 06 00 00 00       	push   $0x6
    1099:	e9 82 ff ff ff       	jmp    1020 <_init+0x20>
    109e:	66 90                	xchg   %ax,%ax
    10a0:	f3 0f 1e fa          	endbr64
    10a4:	68 07 00 00 00       	push   $0x7
    10a9:	e9 72 ff ff ff       	jmp    1020 <_init+0x20>
    10ae:	66 90                	xchg   %ax,%ax
    10b0:	f3 0f 1e fa          	endbr64
    10b4:	68 08 00 00 00       	push   $0x8
    10b9:	e9 62 ff ff ff       	jmp    1020 <_init+0x20>
    10be:	66 90                	xchg   %ax,%ax
    10c0:	f3 0f 1e fa          	endbr64
    10c4:	68 09 00 00 00       	push   $0x9
    10c9:	e9 52 ff ff ff       	jmp    1020 <_init+0x20>
    10ce:	66 90                	xchg   %ax,%ax
    10d0:	f3 0f 1e fa          	endbr64
    10d4:	68 0a 00 00 00       	push   $0xa
    10d9:	e9 42 ff ff ff       	jmp    1020 <_init+0x20>
    10de:	66 90                	xchg   %ax,%ax
    10e0:	f3 0f 1e fa          	endbr64
    10e4:	68 0b 00 00 00       	push   $0xb
    10e9:	e9 32 ff ff ff       	jmp    1020 <_init+0x20>
    10ee:	66 90                	xchg   %ax,%ax
    10f0:	f3 0f 1e fa          	endbr64
    10f4:	68 0c 00 00 00       	push   $0xc
    10f9:	e9 22 ff ff ff       	jmp    1020 <_init+0x20>
    10fe:	66 90                	xchg   %ax,%ax
    1100:	f3 0f 1e fa          	endbr64
    1104:	68 0d 00 00 00       	push   $0xd
    1109:	e9 12 ff ff ff       	jmp    1020 <_init+0x20>
    110e:	66 90                	xchg   %ax,%ax

Disassembly of section .plt.got:

0000000000001110 <__cxa_finalize@plt>:
    1110:	f3 0f 1e fa          	endbr64
    1114:	ff 25 de 7e 01 00    	jmp    *0x17ede(%rip)        # 18ff8 <__cxa_finalize@GLIBC_2.2.5>
    111a:	66 0f 1f 44 00 00    	nopw   0x0(%rax,%rax,1)

Disassembly of section .plt.sec:

0000000000001120 <free@plt>:
    1120:	f3 0f 1e fa          	endbr64
    1124:	ff 25 3e 7e 01 00    	jmp    *0x17e3e(%rip)        # 18f68 <free@GLIBC_2.2.5>
    112a:	66 0f 1f 44 00 00    	nopw   0x0(%rax,%rax,1)

0000000000001130 <__errno_location@plt>:
    1130:	f3 0f 1e fa          	endbr64
    1134:	ff 25 36 7e 01 00    	jmp    *0x17e36(%rip)        # 18f70 <__errno_location@GLIBC_2.2.5>
    113a:	66 0f 1f 44 00 00    	nopw   0x0(%rax,%rax,1)

0000000000001140 <puts@plt>:
    1140:	f3 0f 1e fa          	endbr64
    1144:	ff 25 2e 7e 01 00    	jmp    *0x17e2e(%rip)        # 18f78 <puts@GLIBC_2.2.5>
    114a:	66 0f 1f 44 00 00    	nopw   0x0(%rax,%rax,1)

0000000000001150 <__stack_chk_fail@plt>:
    1150:	f3 0f 1e fa          	endbr64
    1154:	ff 25 26 7e 01 00    	jmp    *0x17e26(%rip)        # 18f80 <__stack_chk_fail@GLIBC_2.4>
    115a:	66 0f 1f 44 00 00    	nopw   0x0(%rax,%rax,1)

0000000000001160 <memset@plt>:
    1160:	f3 0f 1e fa          	endbr64
    1164:	ff 25 1e 7e 01 00    	jmp    *0x17e1e(%rip)        # 18f88 <memset@GLIBC_2.2.5>
    116a:	66 0f 1f 44 00 00    	nopw   0x0(%rax,%rax,1)

0000000000001170 <memcmp@plt>:
    1170:	f3 0f 1e fa          	endbr64
    1174:	ff 25 16 7e 01 00    	jmp    *0x17e16(%rip)        # 18f90 <memcmp@GLIBC_2.2.5>
    117a:	66 0f 1f 44 00 00    	nopw   0x0(%rax,%rax,1)

0000000000001180 <calloc@plt>:
    1180:	f3 0f 1e fa          	endbr64
    1184:	ff 25 0e 7e 01 00    	jmp    *0x17e0e(%rip)        # 18f98 <calloc@GLIBC_2.2.5>
    118a:	66 0f 1f 44 00 00    	nopw   0x0(%rax,%rax,1)

0000000000001190 <memcpy@plt>:
    1190:	f3 0f 1e fa          	endbr64
    1194:	ff 25 06 7e 01 00    	jmp    *0x17e06(%rip)        # 18fa0 <memcpy@GLIBC_2.14>
    119a:	66 0f 1f 44 00 00    	nopw   0x0(%rax,%rax,1)

00000000000011a0 <malloc@plt>:
    11a0:	f3 0f 1e fa          	endbr64
    11a4:	ff 25 fe 7d 01 00    	jmp    *0x17dfe(%rip)        # 18fa8 <malloc@GLIBC_2.2.5>
    11aa:	66 0f 1f 44 00 00    	nopw   0x0(%rax,%rax,1)

00000000000011b0 <__printf_chk@plt>:
    11b0:	f3 0f 1e fa          	endbr64
    11b4:	ff 25 f6 7d 01 00    	jmp    *0x17df6(%rip)        # 18fb0 <__printf_chk@GLIBC_2.3.4>
    11ba:	66 0f 1f 44 00 00    	nopw   0x0(%rax,%rax,1)

00000000000011c0 <memmove@plt>:
    11c0:	f3 0f 1e fa          	endbr64
    11c4:	ff 25 ee 7d 01 00    	jmp    *0x17dee(%rip)        # 18fb8 <memmove@GLIBC_2.2.5>
    11ca:	66 0f 1f 44 00 00    	nopw   0x0(%rax,%rax,1)

00000000000011d0 <__memset_chk@plt>:
    11d0:	f3 0f 1e fa          	endbr64
    11d4:	ff 25 e6 7d 01 00    	jmp    *0x17de6(%rip)        # 18fc0 <__memset_chk@GLIBC_2.3.4>
    11da:	66 0f 1f 44 00 00    	nopw   0x0(%rax,%rax,1)

00000000000011e0 <exit@plt>:
    11e0:	f3 0f 1e fa          	endbr64
    11e4:	ff 25 de 7d 01 00    	jmp    *0x17dde(%rip)        # 18fc8 <exit@GLIBC_2.2.5>
    11ea:	66 0f 1f 44 00 00    	nopw   0x0(%rax,%rax,1)

00000000000011f0 <getrandom@plt>:
    11f0:	f3 0f 1e fa          	endbr64
    11f4:	ff 25 d6 7d 01 00    	jmp    *0x17dd6(%rip)        # 18fd0 <getrandom@GLIBC_2.25>
    11fa:	66 0f 1f 44 00 00    	nopw   0x0(%rax,%rax,1)

Disassembly of section .text:

0000000000001200 <main>:
    1200:	f3 0f 1e fa          	endbr64
    1204:	55                   	push   %rbp
    1205:	be 01 00 00 00       	mov    $0x1,%esi
    120a:	bf 8c 05 00 00       	mov    $0x58c,%edi
    120f:	48 89 e5             	mov    %rsp,%rbp
    1212:	41 57                	push   %r15
    1214:	41 56                	push   %r14
    1216:	41 55                	push   %r13
    1218:	41 54                	push   %r12
    121a:	53                   	push   %rbx
    121b:	48 81 ec 98 00 00 00 	sub    $0x98,%rsp
    1222:	64 48 8b 04 25 28 00 	mov    %fs:0x28,%rax
    1229:	00 00 
    122b:	48 89 84 24 88 00 00 	mov    %rax,0x88(%rsp)
    1232:	00 
    1233:	31 c0                	xor    %eax,%eax
    1235:	48 c7 44 24 30 20 00 	movq   $0x20,0x30(%rsp)
    123c:	00 00 
    123e:	48 c7 44 24 38 e6 01 	movq   $0x1e6,0x38(%rsp)
    1245:	00 00 
    1247:	e8 34 ff ff ff       	call   1180 <calloc@plt>
    124c:	be 01 00 00 00       	mov    $0x1,%esi
    1251:	bf 18 00 00 00       	mov    $0x18,%edi
    1256:	49 89 c4             	mov    %rax,%r12
    1259:	e8 22 ff ff ff       	call   1180 <calloc@plt>
    125e:	be 88 48 02 00       	mov    $0x24888,%esi
    1263:	bf 01 00 00 00       	mov    $0x1,%edi
    1268:	49 89 c7             	mov    %rax,%r15
    126b:	48 89 44 24 28       	mov    %rax,0x28(%rsp)
    1270:	e8 0b ff ff ff       	call   1180 <calloc@plt>
    1275:	be 58 45 02 00       	mov    $0x24558,%esi
    127a:	bf 01 00 00 00       	mov    $0x1,%edi
    127f:	48 89 44 24 18       	mov    %rax,0x18(%rsp)
    1284:	e8 f7 fe ff ff       	call   1180 <calloc@plt>
    1289:	be 01 00 00 00       	mov    $0x1,%esi
    128e:	bf e6 01 00 00       	mov    $0x1e6,%edi
    1293:	48 89 44 24 20       	mov    %rax,0x20(%rsp)
    1298:	e8 e3 fe ff ff       	call   1180 <calloc@plt>
    129d:	c5 f9 ef c0          	vpxor  %xmm0,%xmm0,%xmm0
    12a1:	c5 fd 6f 0d 97 4e 01 	vmovdqa 0x14e97(%rip),%ymm1        # 16140 <_IO_stdin_used+0x140>
    12a8:	00 
    12a9:	48 8d 15 54 4d 01 00 	lea    0x14d54(%rip),%rdx        # 16004 <_IO_stdin_used+0x4>
    12b0:	c5 fe 7f 44 24 60    	vmovdqu %ymm0,0x60(%rsp)
    12b6:	48 8d 35 4e 4d 01 00 	lea    0x14d4e(%rip),%rsi        # 1600b <_IO_stdin_used+0xb>
    12bd:	bf 02 00 00 00       	mov    $0x2,%edi
    12c2:	48 89 c3             	mov    %rax,%rbx
    12c5:	c5 fe 7f 4c 24 40    	vmovdqu %ymm1,0x40(%rsp)
    12cb:	31 c0                	xor    %eax,%eax
    12cd:	c5 f8 77             	vzeroupper
    12d0:	e8 db fe ff ff       	call   11b0 <__printf_chk@plt>
    12d5:	bf 02 00 00 00       	mov    $0x2,%edi
    12da:	31 c0                	xor    %eax,%eax
    12dc:	48 8d 35 39 4d 01 00 	lea    0x14d39(%rip),%rsi        # 1601c <_IO_stdin_used+0x1c>
    12e3:	e8 c8 fe ff ff       	call   11b0 <__printf_chk@plt>
    12e8:	31 ff                	xor    %edi,%edi
    12ea:	4c 89 fa             	mov    %r15,%rdx
    12ed:	4c 89 e6             	mov    %r12,%rsi
    12f0:	e8 bb 74 00 00       	call   87b0 <pqmayo_MAYO_1_opt_mayo_keypair>
    12f5:	85 c0                	test   %eax,%eax
    12f7:	0f 85 56 02 00 00    	jne    1553 <main+0x353>
    12fd:	4c 8d 2d 2e 4d 01 00 	lea    0x14d2e(%rip),%r13        # 16032 <_IO_stdin_used+0x32>
    1304:	4c 89 ef             	mov    %r13,%rdi
    1307:	e8 34 fe ff ff       	call   1140 <puts@plt>
    130c:	48 8d 35 22 4d 01 00 	lea    0x14d22(%rip),%rsi        # 16035 <_IO_stdin_used+0x35>
    1313:	bf 02 00 00 00       	mov    $0x2,%edi
    1318:	31 c0                	xor    %eax,%eax
    131a:	e8 91 fe ff ff       	call   11b0 <__printf_chk@plt>
    131f:	4c 8b 7c 24 28       	mov    0x28(%rsp),%r15
    1324:	48 8b 54 24 20       	mov    0x20(%rsp),%rdx
    1329:	31 ff                	xor    %edi,%edi
    132b:	4c 89 fe             	mov    %r15,%rsi
    132e:	e8 ad 11 00 00       	call   24e0 <pqmayo_MAYO_1_opt_mayo_expand_sk>
    1333:	85 c0                	test   %eax,%eax
    1335:	0f 85 18 02 00 00    	jne    1553 <main+0x353>
    133b:	4c 89 ef             	mov    %r13,%rdi
    133e:	e8 fd fd ff ff       	call   1140 <puts@plt>
    1343:	48 8d 35 fe 4c 01 00 	lea    0x14cfe(%rip),%rsi        # 16048 <_IO_stdin_used+0x48>
    134a:	bf 02 00 00 00       	mov    $0x2,%edi
    134f:	31 c0                	xor    %eax,%eax
    1351:	e8 5a fe ff ff       	call   11b0 <__printf_chk@plt>
    1356:	48 8b 54 24 18       	mov    0x18(%rsp),%rdx
    135b:	31 ff                	xor    %edi,%edi
    135d:	4c 89 e6             	mov    %r12,%rsi
    1360:	e8 5b 74 00 00       	call   87c0 <pqmayo_MAYO_1_opt_mayo_expand_pk>
    1365:	85 c0                	test   %eax,%eax
    1367:	0f 85 e6 01 00 00    	jne    1553 <main+0x353>
    136d:	4c 89 ef             	mov    %r13,%rdi
    1370:	4c 8d 74 24 40       	lea    0x40(%rsp),%r14
    1375:	e8 c6 fd ff ff       	call   1140 <puts@plt>
    137a:	48 8d 35 da 4c 01 00 	lea    0x14cda(%rip),%rsi        # 1605b <_IO_stdin_used+0x5b>
    1381:	bf 02 00 00 00       	mov    $0x2,%edi
    1386:	31 c0                	xor    %eax,%eax
    1388:	e8 23 fe ff ff       	call   11b0 <__printf_chk@plt>
    138d:	4c 8b 44 24 30       	mov    0x30(%rsp),%r8
    1392:	31 ff                	xor    %edi,%edi
    1394:	4d 89 f9             	mov    %r15,%r9
    1397:	48 8d 54 24 38       	lea    0x38(%rsp),%rdx
    139c:	4c 89 f1             	mov    %r14,%rcx
    139f:	48 89 de             	mov    %rbx,%rsi
    13a2:	e8 49 6b 00 00       	call   7ef0 <pqmayo_MAYO_1_opt_mayo_sign>
    13a7:	85 c0                	test   %eax,%eax
    13a9:	0f 85 a4 01 00 00    	jne    1553 <main+0x353>
    13af:	4c 89 ef             	mov    %r13,%rdi
    13b2:	4c 8d 7c 24 60       	lea    0x60(%rsp),%r15
    13b7:	e8 84 fd ff ff       	call   1140 <puts@plt>
    13bc:	48 8d 35 b5 4c 01 00 	lea    0x14cb5(%rip),%rsi        # 16078 <_IO_stdin_used+0x78>
    13c3:	bf 02 00 00 00       	mov    $0x2,%edi
    13c8:	31 c0                	xor    %eax,%eax
    13ca:	e8 e1 fd ff ff       	call   11b0 <__printf_chk@plt>
    13cf:	4c 8b 44 24 38       	mov    0x38(%rsp),%r8
    13d4:	31 ff                	xor    %edi,%edi
    13d6:	4d 89 e1             	mov    %r12,%r9
    13d9:	48 8d 54 24 30       	lea    0x30(%rsp),%rdx
    13de:	48 89 d9             	mov    %rbx,%rcx
    13e1:	4c 89 fe             	mov    %r15,%rsi
    13e4:	48 89 54 24 08       	mov    %rdx,0x8(%rsp)
    13e9:	e8 f2 88 00 00       	call   9ce0 <pqmayo_MAYO_1_opt_mayo_open>
    13ee:	85 c0                	test   %eax,%eax
    13f0:	0f 85 5d 01 00 00    	jne    1553 <main+0x353>
    13f6:	48 8b 54 24 30       	mov    0x30(%rsp),%rdx
    13fb:	4c 89 fe             	mov    %r15,%rsi
    13fe:	4c 89 f7             	mov    %r14,%rdi
    1401:	e8 6a fd ff ff       	call   1170 <memcmp@plt>
    1406:	85 c0                	test   %eax,%eax
    1408:	0f 85 45 01 00 00    	jne    1553 <main+0x353>
    140e:	4c 89 ef             	mov    %r13,%rdi
    1411:	e8 2a fd ff ff       	call   1140 <puts@plt>
    1416:	48 8d 35 8b 4c 01 00 	lea    0x14c8b(%rip),%rsi        # 160a8 <_IO_stdin_used+0xa8>
    141d:	bf 02 00 00 00       	mov    $0x2,%edi
    1422:	31 c0                	xor    %eax,%eax
    1424:	e8 87 fd ff ff       	call   11b0 <__printf_chk@plt>
    1429:	48 8b 54 24 30       	mov    0x30(%rsp),%rdx
    142e:	31 ff                	xor    %edi,%edi
    1430:	4d 89 e0             	mov    %r12,%r8
    1433:	48 89 d9             	mov    %rbx,%rcx
    1436:	4c 89 f6             	mov    %r14,%rsi
    1439:	e8 72 76 00 00       	call   8ab0 <pqmayo_MAYO_1_opt_mayo_verify>
    143e:	85 c0                	test   %eax,%eax
    1440:	89 44 24 14          	mov    %eax,0x14(%rsp)
    1444:	0f 85 09 01 00 00    	jne    1553 <main+0x353>
    144a:	4c 89 ef             	mov    %r13,%rdi
    144d:	e8 ee fc ff ff       	call   1140 <puts@plt>
    1452:	48 8d 35 7f 4c 01 00 	lea    0x14c7f(%rip),%rsi        # 160d8 <_IO_stdin_used+0xd8>
    1459:	bf 02 00 00 00       	mov    $0x2,%edi
    145e:	31 c0                	xor    %eax,%eax
    1460:	e8 4b fd ff ff       	call   11b0 <__printf_chk@plt>
    1465:	f6 13                	notb   (%rbx)
    1467:	48 8b 54 24 30       	mov    0x30(%rsp),%rdx
    146c:	31 f6                	xor    %esi,%esi
    146e:	b9 20 00 00 00       	mov    $0x20,%ecx
    1473:	4c 89 ff             	mov    %r15,%rdi
    1476:	e8 55 fd ff ff       	call   11d0 <__memset_chk@plt>
    147b:	4c 8b 44 24 38       	mov    0x38(%rsp),%r8
    1480:	31 ff                	xor    %edi,%edi
    1482:	4d 89 e1             	mov    %r12,%r9
    1485:	48 8b 54 24 08       	mov    0x8(%rsp),%rdx
    148a:	48 89 d9             	mov    %rbx,%rcx
    148d:	4c 89 fe             	mov    %r15,%rsi
    1490:	e8 4b 88 00 00       	call   9ce0 <pqmayo_MAYO_1_opt_mayo_open>
    1495:	83 f8 01             	cmp    $0x1,%eax
    1498:	0f 85 b5 00 00 00    	jne    1553 <main+0x353>
    149e:	48 8b 54 24 30       	mov    0x30(%rsp),%rdx
    14a3:	4c 89 fe             	mov    %r15,%rsi
    14a6:	4c 89 f7             	mov    %r14,%rdi
    14a9:	e8 c2 fc ff ff       	call   1170 <memcmp@plt>
    14ae:	85 c0                	test   %eax,%eax
    14b0:	0f 84 9d 00 00 00    	je     1553 <main+0x353>
    14b6:	4c 89 ef             	mov    %r13,%rdi
    14b9:	e8 82 fc ff ff       	call   1140 <puts@plt>
    14be:	48 8d 35 3b 4c 01 00 	lea    0x14c3b(%rip),%rsi        # 16100 <_IO_stdin_used+0x100>
    14c5:	bf 02 00 00 00       	mov    $0x2,%edi
    14ca:	31 c0                	xor    %eax,%eax
    14cc:	e8 df fc ff ff       	call   11b0 <__printf_chk@plt>
    14d1:	48 8b 54 24 30       	mov    0x30(%rsp),%rdx
    14d6:	31 ff                	xor    %edi,%edi
    14d8:	4d 89 e0             	mov    %r12,%r8
    14db:	48 89 d9             	mov    %rbx,%rcx
    14de:	4c 89 f6             	mov    %r14,%rsi
    14e1:	e8 ca 75 00 00       	call   8ab0 <pqmayo_MAYO_1_opt_mayo_verify>
    14e6:	85 c0                	test   %eax,%eax
    14e8:	74 69                	je     1553 <main+0x353>
    14ea:	4c 89 ef             	mov    %r13,%rdi
    14ed:	e8 4e fc ff ff       	call   1140 <puts@plt>
    14f2:	4c 89 e7             	mov    %r12,%rdi
    14f5:	e8 26 fc ff ff       	call   1120 <free@plt>
    14fa:	48 8b 7c 24 18       	mov    0x18(%rsp),%rdi
    14ff:	e8 1c fc ff ff       	call   1120 <free@plt>
    1504:	48 8b 7c 24 28       	mov    0x28(%rsp),%rdi
    1509:	be 18 00 00 00       	mov    $0x18,%esi
    150e:	e8 cd 42 01 00       	call   157e0 <mayo_secure_free>
    1513:	48 8b 7c 24 20       	mov    0x20(%rsp),%rdi
    1518:	be 58 45 02 00       	mov    $0x24558,%esi
    151d:	e8 be 42 01 00       	call   157e0 <mayo_secure_free>
    1522:	48 89 df             	mov    %rbx,%rdi
    1525:	e8 f6 fb ff ff       	call   1120 <free@plt>
    152a:	48 8b 84 24 88 00 00 	mov    0x88(%rsp),%rax
    1531:	00 
    1532:	64 48 2b 04 25 28 00 	sub    %fs:0x28,%rax
    1539:	00 00 
    153b:	75 2c                	jne    1569 <main+0x369>
    153d:	8b 44 24 14          	mov    0x14(%rsp),%eax
    1541:	48 81 c4 98 00 00 00 	add    $0x98,%rsp
    1548:	5b                   	pop    %rbx
    1549:	41 5c                	pop    %r12
    154b:	41 5d                	pop    %r13
    154d:	41 5e                	pop    %r14
    154f:	41 5f                	pop    %r15
    1551:	5d                   	pop    %rbp
    1552:	c3                   	ret
    1553:	48 8d 3d d3 4a 01 00 	lea    0x14ad3(%rip),%rdi        # 1602d <_IO_stdin_used+0x2d>
    155a:	e8 e1 fb ff ff       	call   1140 <puts@plt>
    155f:	c7 44 24 14 ff ff ff 	movl   $0xffffffff,0x14(%rsp)
    1566:	ff 
    1567:	eb 89                	jmp    14f2 <main+0x2f2>
    1569:	e8 e2 fb ff ff       	call   1150 <__stack_chk_fail@plt>
    156e:	66 90                	xchg   %ax,%ax

0000000000001570 <_start>:
    1570:	f3 0f 1e fa          	endbr64
    1574:	31 ed                	xor    %ebp,%ebp
    1576:	49 89 d1             	mov    %rdx,%r9
    1579:	5e                   	pop    %rsi
    157a:	48 89 e2             	mov    %rsp,%rdx
    157d:	48 83 e4 f0          	and    $0xfffffffffffffff0,%rsp
    1581:	50                   	push   %rax
    1582:	54                   	push   %rsp
    1583:	45 31 c0             	xor    %r8d,%r8d
    1586:	31 c9                	xor    %ecx,%ecx
    1588:	48 8d 3d 71 fc ff ff 	lea    -0x38f(%rip),%rdi        # 1200 <main>
    158f:	ff 15 43 7a 01 00    	call   *0x17a43(%rip)        # 18fd8 <__libc_start_main@GLIBC_2.34>
    1595:	f4                   	hlt
    1596:	66 2e 0f 1f 84 00 00 	cs nopw 0x0(%rax,%rax,1)
    159d:	00 00 00 

00000000000015a0 <deregister_tm_clones>:
    15a0:	48 8d 3d 79 7a 01 00 	lea    0x17a79(%rip),%rdi        # 19020 <__TMC_END__>
    15a7:	48 8d 05 72 7a 01 00 	lea    0x17a72(%rip),%rax        # 19020 <__TMC_END__>
    15ae:	48 39 f8             	cmp    %rdi,%rax
    15b1:	74 15                	je     15c8 <deregister_tm_clones+0x28>
    15b3:	48 8b 05 26 7a 01 00 	mov    0x17a26(%rip),%rax        # 18fe0 <_ITM_deregisterTMCloneTable@Base>
    15ba:	48 85 c0             	test   %rax,%rax
    15bd:	74 09                	je     15c8 <deregister_tm_clones+0x28>
    15bf:	ff e0                	jmp    *%rax
    15c1:	0f 1f 80 00 00 00 00 	nopl   0x0(%rax)
    15c8:	c3                   	ret
    15c9:	0f 1f 80 00 00 00 00 	nopl   0x0(%rax)

00000000000015d0 <register_tm_clones>:
    15d0:	48 8d 3d 49 7a 01 00 	lea    0x17a49(%rip),%rdi        # 19020 <__TMC_END__>
    15d7:	48 8d 35 42 7a 01 00 	lea    0x17a42(%rip),%rsi        # 19020 <__TMC_END__>
    15de:	48 29 fe             	sub    %rdi,%rsi
    15e1:	48 89 f0             	mov    %rsi,%rax
    15e4:	48 c1 ee 3f          	shr    $0x3f,%rsi
    15e8:	48 c1 f8 03          	sar    $0x3,%rax
    15ec:	48 01 c6             	add    %rax,%rsi
    15ef:	48 d1 fe             	sar    $1,%rsi
    15f2:	74 14                	je     1608 <register_tm_clones+0x38>
    15f4:	48 8b 05 f5 79 01 00 	mov    0x179f5(%rip),%rax        # 18ff0 <_ITM_registerTMCloneTable@Base>
    15fb:	48 85 c0             	test   %rax,%rax
    15fe:	74 08                	je     1608 <register_tm_clones+0x38>
    1600:	ff e0                	jmp    *%rax
    1602:	66 0f 1f 44 00 00    	nopw   0x0(%rax,%rax,1)
    1608:	c3                   	ret
    1609:	0f 1f 80 00 00 00 00 	nopl   0x0(%rax)

0000000000001610 <__do_global_dtors_aux>:
    1610:	f3 0f 1e fa          	endbr64
    1614:	80 3d 05 7a 01 00 00 	cmpb   $0x0,0x17a05(%rip)        # 19020 <__TMC_END__>
    161b:	75 2b                	jne    1648 <__do_global_dtors_aux+0x38>
    161d:	55                   	push   %rbp
    161e:	48 83 3d d2 79 01 00 	cmpq   $0x0,0x179d2(%rip)        # 18ff8 <__cxa_finalize@GLIBC_2.2.5>
    1625:	00 
    1626:	48 89 e5             	mov    %rsp,%rbp
    1629:	74 0c                	je     1637 <__do_global_dtors_aux+0x27>
    162b:	48 8b 3d d6 79 01 00 	mov    0x179d6(%rip),%rdi        # 19008 <__dso_handle>
    1632:	e8 d9 fa ff ff       	call   1110 <__cxa_finalize@plt>
    1637:	e8 64 ff ff ff       	call   15a0 <deregister_tm_clones>
    163c:	c6 05 dd 79 01 00 01 	movb   $0x1,0x179dd(%rip)        # 19020 <__TMC_END__>
    1643:	5d                   	pop    %rbp
    1644:	c3                   	ret
    1645:	0f 1f 00             	nopl   (%rax)
    1648:	c3                   	ret
    1649:	0f 1f 80 00 00 00 00 	nopl   0x0(%rax)

0000000000001650 <frame_dummy>:
    1650:	f3 0f 1e fa          	endbr64
    1654:	e9 77 ff ff ff       	jmp    15d0 <register_tm_clones>
    1659:	0f 1f 80 00 00 00 00 	nopl   0x0(%rax)

0000000000001660 <m_vec_multiply_bins.isra.0>:
    1660:	48 ba 11 11 11 11 11 	movabs $0x1111111111111111,%rdx
    1667:	11 11 11 
    166a:	49 89 f0             	mov    %rsi,%r8
    166d:	48 89 f8             	mov    %rdi,%rax
    1670:	c5 fe 6f bf c8 00 00 	vmovdqu 0xc8(%rdi),%ymm7
    1677:	00 
    1678:	c4 e1 f9 6e ca       	vmovq  %rdx,%xmm1
    167d:	48 8b b7 e8 00 00 00 	mov    0xe8(%rdi),%rsi
    1684:	49 ba 77 77 77 77 77 	movabs $0x7777777777777777,%r10
    168b:	77 77 77 
    168e:	c5 7e 6f a7 b8 01 00 	vmovdqu 0x1b8(%rdi),%ymm12
    1695:	00 
    1696:	c4 62 7d 59 c1       	vpbroadcastq %xmm1,%ymm8
    169b:	c4 c1 f9 6e c2       	vmovq  %r10,%xmm0
    16a0:	c5 bd db b7 c8 00 00 	vpand  0xc8(%rdi),%ymm8,%ymm6
    16a7:	00 
    16a8:	49 b9 ee ee ee ee ee 	movabs $0xeeeeeeeeeeeeeeee,%r9
    16af:	ee ee ee 
    16b2:	c4 e2 7d 59 e0       	vpbroadcastq %xmm0,%ymm4
    16b7:	c5 ed 73 d7 01       	vpsrlq $0x1,%ymm7,%ymm2
    16bc:	c4 41 f9 6e f1       	vmovq  %r9,%xmm14
    16c1:	49 89 f3             	mov    %rsi,%r11
    16c4:	c5 e5 73 f6 03       	vpsllq $0x3,%ymm6,%ymm3
    16c9:	c5 ed db ec          	vpand  %ymm4,%ymm2,%ymm5
    16cd:	48 21 d6             	and    %rdx,%rsi
    16d0:	49 d1 eb             	shr    $1,%r11
    16d3:	c5 65 d4 ce          	vpaddq %ymm6,%ymm3,%ymm9
    16d7:	c4 42 7d 59 fe       	vpbroadcastq %xmm14,%ymm15
    16dc:	48 8d 0c f6          	lea    (%rsi,%rsi,8),%rcx
    16e0:	4d 21 d3             	and    %r10,%r11
    16e3:	c5 fe 6f 87 b8 01 00 	vmovdqu 0x1b8(%rdi),%ymm0
    16ea:	00 
    16eb:	c4 41 55 ef d1       	vpxor  %ymm9,%ymm5,%ymm10
    16f0:	c4 c1 15 73 f4 01    	vpsllq $0x1,%ymm12,%ymm13
    16f6:	49 31 cb             	xor    %rcx,%r11
    16f9:	c4 c1 15 db ff       	vpand  %ymm15,%ymm13,%ymm7
    16fe:	c5 c5 ef 97 e0 01 00 	vpxor  0x1e0(%rdi),%ymm7,%ymm2
    1705:	00 
    1706:	c5 2d ef 9f 90 01 00 	vpxor  0x190(%rdi),%ymm10,%ymm11
    170d:	00 
    170e:	c5 d5 73 d0 03       	vpsrlq $0x3,%ymm0,%ymm5
    1713:	4c 33 9f b0 01 00 00 	xor    0x1b0(%rdi),%r11
    171a:	c4 c1 55 db c8       	vpand  %ymm8,%ymm5,%ymm1
    171f:	4c 89 9f b0 01 00 00 	mov    %r11,0x1b0(%rdi)
    1726:	c4 c1 2d 73 d3 01    	vpsrlq $0x1,%ymm11,%ymm10
    172c:	c5 cd 73 f1 01       	vpsllq $0x1,%ymm1,%ymm6
    1731:	c5 7e 7f 9f 90 01 00 	vmovdqu %ymm11,0x190(%rdi)
    1738:	00 
    1739:	c4 41 25 db d8       	vpand  %ymm8,%ymm11,%ymm11
    173e:	c5 2d db e4          	vpand  %ymm4,%ymm10,%ymm12
    1742:	c5 cd d4 d9          	vpaddq %ymm1,%ymm6,%ymm3
    1746:	c4 c1 15 73 f3 03    	vpsllq $0x3,%ymm11,%ymm13
    174c:	c5 6d ef cb          	vpxor  %ymm3,%ymm2,%ymm9
    1750:	c4 41 15 d4 f3       	vpaddq %ymm11,%ymm13,%ymm14
    1755:	c4 c1 75 73 d1 03    	vpsrlq $0x3,%ymm9,%ymm1
    175b:	c4 c1 6d 73 f1 01    	vpsllq $0x1,%ymm9,%ymm2
    1761:	c4 c1 1d ef fe       	vpxor  %ymm14,%ymm12,%ymm7
    1766:	c5 7e 7f 8f e0 01 00 	vmovdqu %ymm9,0x1e0(%rdi)
    176d:	00 
    176e:	48 8b bf d8 01 00 00 	mov    0x1d8(%rdi),%rdi
    1775:	c5 c5 ef 80 18 01 00 	vpxor  0x118(%rax),%ymm7,%ymm0
    177c:	00 
    177d:	c4 41 75 db c8       	vpand  %ymm8,%ymm1,%ymm9
    1782:	c4 c1 6d db ef       	vpand  %ymm15,%ymm2,%ymm5
    1787:	c4 c1 4d 73 f1 01    	vpsllq $0x1,%ymm9,%ymm6
    178d:	c5 d5 ef 98 f0 00 00 	vpxor  0xf0(%rax),%ymm5,%ymm3
    1794:	00 
    1795:	48 8d 34 3f          	lea    (%rdi,%rdi,1),%rsi
    1799:	48 c1 ef 03          	shr    $0x3,%rdi
    179d:	c4 41 7d db f0       	vpand  %ymm8,%ymm0,%ymm14
    17a2:	c5 fe 7f 80 18 01 00 	vmovdqu %ymm0,0x118(%rax)
    17a9:	00 
    17aa:	48 21 d7             	and    %rdx,%rdi
    17ad:	c5 a5 73 d0 01       	vpsrlq $0x1,%ymm0,%ymm11
    17b2:	c4 41 4d d4 d1       	vpaddq %ymm9,%ymm6,%ymm10
    17b7:	4c 21 ce             	and    %r9,%rsi
    17ba:	48 8d 0c 7f          	lea    (%rdi,%rdi,2),%rcx
    17be:	c4 c1 45 73 f6 03    	vpsllq $0x3,%ymm14,%ymm7
    17c4:	c4 41 65 ef e2       	vpxor  %ymm10,%ymm3,%ymm12
    17c9:	4c 89 df             	mov    %r11,%rdi
    17cc:	48 d1 ef             	shr    $1,%rdi
    17cf:	c5 25 db ec          	vpand  %ymm4,%ymm11,%ymm13
    17d3:	c4 c1 45 d4 c6       	vpaddq %ymm14,%ymm7,%ymm0
    17d8:	49 21 d3             	and    %rdx,%r11
    17db:	48 33 b0 00 02 00 00 	xor    0x200(%rax),%rsi
    17e2:	4c 21 d7             	and    %r10,%rdi
    17e5:	c5 95 ef d0          	vpxor  %ymm0,%ymm13,%ymm2
    17e9:	c5 7e 7f a0 f0 00 00 	vmovdqu %ymm12,0xf0(%rax)
    17f0:	00 
    17f1:	48 31 ce             	xor    %rcx,%rsi
    17f4:	c4 c1 4d 73 d4 03    	vpsrlq $0x3,%ymm12,%ymm6
    17fa:	4b 8d 0c db          	lea    (%r11,%r11,8),%rcx
    17fe:	48 31 cf             	xor    %rcx,%rdi
    1801:	48 89 b0 00 02 00 00 	mov    %rsi,0x200(%rax)
    1808:	48 8d 0c 36          	lea    (%rsi,%rsi,1),%rcx
    180c:	48 33 b8 38 01 00 00 	xor    0x138(%rax),%rdi
    1813:	48 c1 ee 03          	shr    $0x3,%rsi
    1817:	49 89 fb             	mov    %rdi,%r11
    181a:	c4 41 4d db d0       	vpand  %ymm8,%ymm6,%ymm10
    181f:	4c 21 c9             	and    %r9,%rcx
    1822:	48 21 d6             	and    %rdx,%rsi
    1825:	c5 ed ef 98 30 02 00 	vpxor  0x230(%rax),%ymm2,%ymm3
    182c:	00 
    182d:	48 33 88 10 01 00 00 	xor    0x110(%rax),%rcx
    1834:	49 d1 eb             	shr    $1,%r11
    1837:	48 89 b8 38 01 00 00 	mov    %rdi,0x138(%rax)
    183e:	48 8d 34 76          	lea    (%rsi,%rsi,2),%rsi
    1842:	48 21 d7             	and    %rdx,%rdi
    1845:	4d 21 d3             	and    %r10,%r11
    1848:	48 31 f1             	xor    %rsi,%rcx
    184b:	c4 c1 55 73 f4 01    	vpsllq $0x1,%ymm12,%ymm5
    1851:	48 8d 34 ff          	lea    (%rdi,%rdi,8),%rsi
    1855:	c5 fe 7f 98 30 02 00 	vmovdqu %ymm3,0x230(%rax)
    185c:	00 
    185d:	c4 c1 55 db cf       	vpand  %ymm15,%ymm5,%ymm1
    1862:	c4 c1 65 db c0       	vpand  %ymm8,%ymm3,%ymm0
    1867:	c5 75 ef 48 78       	vpxor  0x78(%rax),%ymm1,%ymm9
    186c:	49 31 f3             	xor    %rsi,%r11
    186f:	c4 c1 1d 73 f2 01    	vpsllq $0x1,%ymm10,%ymm12
    1875:	c5 8d 73 d3 01       	vpsrlq $0x1,%ymm3,%ymm14
    187a:	48 8d 3c 09          	lea    (%rcx,%rcx,1),%rdi
    187e:	4c 33 98 50 02 00 00 	xor    0x250(%rax),%r11
    1885:	c4 41 1d d4 da       	vpaddq %ymm10,%ymm12,%ymm11
    188a:	c5 ed 73 f0 03       	vpsllq $0x3,%ymm0,%ymm2
    188f:	4c 89 de             	mov    %r11,%rsi
    1892:	4c 21 cf             	and    %r9,%rdi
    1895:	c4 41 35 ef eb       	vpxor  %ymm11,%ymm9,%ymm13
    189a:	c5 8d db fc          	vpand  %ymm4,%ymm14,%ymm7
    189e:	c5 ed d4 d8          	vpaddq %ymm0,%ymm2,%ymm3
    18a2:	48 d1 ee             	shr    $1,%rsi
    18a5:	48 89 88 10 01 00 00 	mov    %rcx,0x110(%rax)
    18ac:	48 c1 e9 03          	shr    $0x3,%rcx
    18b0:	c5 c5 ef eb          	vpxor  %ymm3,%ymm7,%ymm5
    18b4:	4c 21 d6             	and    %r10,%rsi
    18b7:	48 21 d1             	and    %rdx,%rcx
    18ba:	c4 c1 1d 73 d5 03    	vpsrlq $0x3,%ymm13,%ymm12
    18c0:	48 33 b8 98 00 00 00 	xor    0x98(%rax),%rdi
    18c7:	4c 89 98 50 02 00 00 	mov    %r11,0x250(%rax)
    18ce:	48 8d 0c 49          	lea    (%rcx,%rcx,2),%rcx
    18d2:	c4 41 1d db d8       	vpand  %ymm8,%ymm12,%ymm11
    18d7:	c5 7e 7f 68 78       	vmovdqu %ymm13,0x78(%rax)
    18dc:	c5 55 ef 88 58 02 00 	vpxor  0x258(%rax),%ymm5,%ymm9
    18e3:	00 
    18e4:	48 31 cf             	xor    %rcx,%rdi
    18e7:	c4 c1 75 73 f5 01    	vpsllq $0x1,%ymm13,%ymm1
    18ed:	49 21 d3             	and    %rdx,%r11
    18f0:	4b 8d 0c db          	lea    (%r11,%r11,8),%rcx
    18f4:	c4 c1 75 db f7       	vpand  %ymm15,%ymm1,%ymm6
    18f9:	48 89 b8 98 00 00 00 	mov    %rdi,0x98(%rax)
    1900:	4c 8d 1c 3f          	lea    (%rdi,%rdi,1),%r11
    1904:	48 31 ce             	xor    %rcx,%rsi
    1907:	c4 c1 15 73 f3 01    	vpsllq $0x1,%ymm11,%ymm13
    190d:	48 c1 ef 03          	shr    $0x3,%rdi
    1911:	c4 c1 35 db c0       	vpand  %ymm8,%ymm9,%ymm0
    1916:	c4 41 15 d4 f3       	vpaddq %ymm11,%ymm13,%ymm14
    191b:	c5 ed 73 f0 03       	vpsllq $0x3,%ymm0,%ymm2
    1920:	48 21 d7             	and    %rdx,%rdi
    1923:	4d 21 cb             	and    %r9,%r11
    1926:	c5 7e 7f 88 58 02 00 	vmovdqu %ymm9,0x258(%rax)
    192d:	00 
    192e:	48 33 b0 78 02 00 00 	xor    0x278(%rax),%rsi
    1935:	48 8d 3c 7f          	lea    (%rdi,%rdi,2),%rdi
    1939:	c5 ed d4 d8          	vpaddq %ymm0,%ymm2,%ymm3
    193d:	c5 4d ef 90 40 01 00 	vpxor  0x140(%rax),%ymm6,%ymm10
    1944:	00 
    1945:	48 89 f1             	mov    %rsi,%rcx
    1948:	4c 33 98 60 01 00 00 	xor    0x160(%rax),%r11
    194f:	48 89 b0 78 02 00 00 	mov    %rsi,0x278(%rax)
    1956:	48 21 d1             	and    %rdx,%rcx
    1959:	c4 c1 55 73 d1 01    	vpsrlq $0x1,%ymm9,%ymm5
    195f:	48 d1 ee             	shr    $1,%rsi
    1962:	49 31 fb             	xor    %rdi,%r11
    1965:	c4 c1 2d ef fe       	vpxor  %ymm14,%ymm10,%ymm7
    196a:	c5 55 db cc          	vpand  %ymm4,%ymm5,%ymm9
    196e:	48 8d 3c c9          	lea    (%rcx,%rcx,8),%rdi
    1972:	4c 21 d6             	and    %r10,%rsi
    1975:	c5 95 73 d7 03       	vpsrlq $0x3,%ymm7,%ymm13
    197a:	c5 ad 73 f7 01       	vpsllq $0x1,%ymm7,%ymm10
    197f:	c4 c1 65 ef c9       	vpxor  %ymm9,%ymm3,%ymm1
    1984:	48 31 f7             	xor    %rsi,%rdi
    1987:	c4 41 15 db f0       	vpand  %ymm8,%ymm13,%ymm14
    198c:	c4 41 2d db e7       	vpand  %ymm15,%ymm10,%ymm12
    1991:	c5 fe 7f b8 40 01 00 	vmovdqu %ymm7,0x140(%rax)
    1998:	00 
    1999:	c5 1d ef 98 a0 00 00 	vpxor  0xa0(%rax),%ymm12,%ymm11
    19a0:	00 
    19a1:	c4 c1 45 73 f6 01    	vpsllq $0x1,%ymm14,%ymm7
    19a7:	c5 f5 ef b0 08 02 00 	vpxor  0x208(%rax),%ymm1,%ymm6
    19ae:	00 
    19af:	4b 8d 34 1b          	lea    (%r11,%r11,1),%rsi
    19b3:	48 33 b8 28 02 00 00 	xor    0x228(%rax),%rdi
    19ba:	c4 c1 45 d4 c6       	vpaddq %ymm14,%ymm7,%ymm0
    19bf:	4c 89 98 60 01 00 00 	mov    %r11,0x160(%rax)
    19c6:	48 89 f9             	mov    %rdi,%rcx
    19c9:	4c 21 ce             	and    %r9,%rsi
    19cc:	49 c1 eb 03          	shr    $0x3,%r11
    19d0:	c5 a5 ef d8          	vpxor  %ymm0,%ymm11,%ymm3
    19d4:	c4 c1 4d db d0       	vpand  %ymm8,%ymm6,%ymm2
    19d9:	48 21 d1             	and    %rdx,%rcx
    19dc:	49 21 d3             	and    %rdx,%r11
    19df:	48 33 b0 c0 00 00 00 	xor    0xc0(%rax),%rsi
    19e6:	48 89 b8 28 02 00 00 	mov    %rdi,0x228(%rax)
    19ed:	48 d1 ef             	shr    $1,%rdi
    19f0:	c5 c5 73 d3 03       	vpsrlq $0x3,%ymm3,%ymm7
    19f5:	4f 8d 1c 5b          	lea    (%r11,%r11,2),%r11
    19f9:	4c 21 d7             	and    %r10,%rdi
    19fc:	c5 fe 7f b0 08 02 00 	vmovdqu %ymm6,0x208(%rax)
    1a03:	00 
    1a04:	4c 31 de             	xor    %r11,%rsi
    1a07:	c4 c1 45 db c0       	vpand  %ymm8,%ymm7,%ymm0
    1a0c:	4c 8d 1c c9          	lea    (%rcx,%rcx,8),%r11
    1a10:	c5 fe 7f 98 a0 00 00 	vmovdqu %ymm3,0xa0(%rax)
    1a17:	00 
    1a18:	c5 d5 73 f2 03       	vpsllq $0x3,%ymm2,%ymm5
    1a1d:	c5 a5 73 f3 01       	vpsllq $0x1,%ymm3,%ymm11
    1a22:	48 8d 0c 36          	lea    (%rsi,%rsi,1),%rcx
    1a26:	49 31 fb             	xor    %rdi,%r11
    1a29:	c5 f5 73 d6 01       	vpsrlq $0x1,%ymm6,%ymm1
    1a2e:	c5 55 d4 ca          	vpaddq %ymm2,%ymm5,%ymm9
    1a32:	c4 41 25 db ef       	vpand  %ymm15,%ymm11,%ymm13
    1a37:	4c 21 c9             	and    %r9,%rcx
    1a3a:	c5 15 ef 70 50       	vpxor  0x50(%rax),%ymm13,%ymm14
    1a3f:	c5 f5 db f4          	vpand  %ymm4,%ymm1,%ymm6
    1a43:	48 33 48 70          	xor    0x70(%rax),%rcx
    1a47:	48 89 b0 c0 00 00 00 	mov    %rsi,0xc0(%rax)
    1a4e:	4c 33 98 88 01 00 00 	xor    0x188(%rax),%r11
    1a55:	c5 e5 73 f0 01       	vpsllq $0x1,%ymm0,%ymm3
    1a5a:	48 c1 ee 03          	shr    $0x3,%rsi
    1a5e:	c5 35 ef d6          	vpxor  %ymm6,%ymm9,%ymm10
    1a62:	c5 e5 d4 d0          	vpaddq %ymm0,%ymm3,%ymm2
    1a66:	48 21 d6             	and    %rdx,%rsi
    1a69:	c5 2d ef a0 68 01 00 	vpxor  0x168(%rax),%ymm10,%ymm12
    1a70:	00 
    1a71:	4c 89 df             	mov    %r11,%rdi
    1a74:	c5 0d ef ca          	vpxor  %ymm2,%ymm14,%ymm9
    1a78:	48 21 d7             	and    %rdx,%rdi
    1a7b:	4c 89 98 88 01 00 00 	mov    %r11,0x188(%rax)
    1a82:	48 8d 34 76          	lea    (%rsi,%rsi,2),%rsi
    1a86:	49 d1 eb             	shr    $1,%r11
    1a89:	48 31 f1             	xor    %rsi,%rcx
    1a8c:	c4 c1 1d db e8       	vpand  %ymm8,%ymm12,%ymm5
    1a91:	c5 7e 7f 48 50       	vmovdqu %ymm9,0x50(%rax)
    1a96:	4d 21 d3             	and    %r10,%r11
    1a99:	48 8d 3c ff          	lea    (%rdi,%rdi,8),%rdi
    1a9d:	4c 8d 14 09          	lea    (%rcx,%rcx,1),%r10
    1aa1:	48 89 48 70          	mov    %rcx,0x70(%rax)
    1aa5:	c4 c1 15 73 d1 03    	vpsrlq $0x3,%ymm9,%ymm13
    1aab:	c4 c1 2d 73 d4 01    	vpsrlq $0x1,%ymm12,%ymm10
    1ab1:	4c 31 df             	xor    %r11,%rdi
    1ab4:	48 33 78 48          	xor    0x48(%rax),%rdi
    1ab8:	c4 41 15 db c0       	vpand  %ymm8,%ymm13,%ymm8
    1abd:	48 c1 e9 03          	shr    $0x3,%rcx
    1ac1:	c5 f5 73 f5 03       	vpsllq $0x3,%ymm5,%ymm1
    1ac6:	4d 21 ca             	and    %r9,%r10
    1ac9:	48 21 d1             	and    %rdx,%rcx
    1acc:	c5 f5 d4 f5          	vpaddq %ymm5,%ymm1,%ymm6
    1ad0:	c5 ad db e4          	vpand  %ymm4,%ymm10,%ymm4
    1ad4:	49 31 fa             	xor    %rdi,%r10
    1ad7:	c4 c1 0d 73 f0 01    	vpsllq $0x1,%ymm8,%ymm14
    1add:	48 8d 14 49          	lea    (%rcx,%rcx,2),%rdx
    1ae1:	4c 8d 48 30          	lea    0x30(%rax),%r9
    1ae5:	c5 7e 7f a0 68 01 00 	vmovdqu %ymm12,0x168(%rax)
    1aec:	00 
    1aed:	c4 c1 7d 73 f1 01    	vpsllq $0x1,%ymm9,%ymm0
    1af3:	c5 4d ef e4          	vpxor  %ymm4,%ymm6,%ymm12
    1af7:	c4 c1 0d d4 f8       	vpaddq %ymm8,%ymm14,%ymm7
    1afc:	4c 89 c1             	mov    %r8,%rcx
    1aff:	c5 1d ef 58 28       	vpxor  0x28(%rax),%ymm12,%ymm11
    1b04:	c4 41 7d db ff       	vpand  %ymm15,%ymm0,%ymm15
    1b09:	4c 29 c9             	sub    %r9,%rcx
    1b0c:	4c 31 d2             	xor    %r10,%rdx
    1b0f:	c4 c1 45 ef df       	vpxor  %ymm15,%ymm7,%ymm3
    1b14:	48 83 f9 10          	cmp    $0x10,%rcx
    1b18:	48 89 50 48          	mov    %rdx,0x48(%rax)
    1b1c:	c4 c1 65 ef d3       	vpxor  %ymm11,%ymm3,%ymm2
    1b21:	c5 fe 7f 50 28       	vmovdqu %ymm2,0x28(%rax)
    1b26:	76 18                	jbe    1b40 <m_vec_multiply_bins.isra.0+0x4e0>
    1b28:	c4 c1 7e 7f 10       	vmovdqu %ymm2,(%r8)
    1b2d:	48 8b 40 48          	mov    0x48(%rax),%rax
    1b31:	49 89 40 20          	mov    %rax,0x20(%r8)
    1b35:	c5 f8 77             	vzeroupper
    1b38:	c3                   	ret
    1b39:	0f 1f 80 00 00 00 00 	nopl   0x0(%rax)
    1b40:	c4 c1 79 d6 10       	vmovq  %xmm2,(%r8)
    1b45:	48 8b 70 30          	mov    0x30(%rax),%rsi
    1b49:	49 89 70 08          	mov    %rsi,0x8(%r8)
    1b4d:	48 8b 78 38          	mov    0x38(%rax),%rdi
    1b51:	49 89 78 10          	mov    %rdi,0x10(%r8)
    1b55:	4c 8b 58 40          	mov    0x40(%rax),%r11
    1b59:	4d 89 58 18          	mov    %r11,0x18(%r8)
    1b5d:	48 8b 40 48          	mov    0x48(%rax),%rax
    1b61:	49 89 40 20          	mov    %rax,0x20(%r8)
    1b65:	c5 f8 77             	vzeroupper
    1b68:	c3                   	ret
    1b69:	0f 1f 80 00 00 00 00 	nopl   0x0(%rax)

0000000000001b70 <compute_rhs.isra.0>:
    1b70:	41 57                	push   %r15
    1b72:	48 89 f1             	mov    %rsi,%rcx
    1b75:	49 89 d0             	mov    %rdx,%r8
    1b78:	48 8d b7 c0 0f 00 00 	lea    0xfc0(%rdi),%rsi
    1b7f:	48 ba ff ff ff ff ff 	movabs $0xffffffffffffff,%rdx
    1b86:	ff ff 00 
    1b89:	41 56                	push   %r14
    1b8b:	41 55                	push   %r13
    1b8d:	41 54                	push   %r12
    1b8f:	55                   	push   %rbp
    1b90:	53                   	push   %rbx
    1b91:	48 83 ec 78          	sub    $0x78,%rsp
    1b95:	64 48 8b 04 25 28 00 	mov    %fs:0x28,%rax
    1b9c:	00 00 
    1b9e:	48 89 44 24 68       	mov    %rax,0x68(%rsp)
    1ba3:	31 c0                	xor    %eax,%eax
    1ba5:	48 8d 47 20          	lea    0x20(%rdi),%rax
    1ba9:	0f 1f 80 00 00 00 00 	nopl   0x0(%rax)
    1bb0:	48 21 10             	and    %rdx,(%rax)
    1bb3:	48 21 50 28          	and    %rdx,0x28(%rax)
    1bb7:	48 21 50 50          	and    %rdx,0x50(%rax)
    1bbb:	48 21 50 78          	and    %rdx,0x78(%rax)
    1bbf:	48 21 90 a0 00 00 00 	and    %rdx,0xa0(%rax)
    1bc6:	48 21 90 c8 00 00 00 	and    %rdx,0xc8(%rax)
    1bcd:	48 21 90 f0 00 00 00 	and    %rdx,0xf0(%rax)
    1bd4:	48 21 90 18 01 00 00 	and    %rdx,0x118(%rax)
    1bdb:	48 21 90 40 01 00 00 	and    %rdx,0x140(%rax)
    1be2:	48 21 90 68 01 00 00 	and    %rdx,0x168(%rax)
    1be9:	48 05 90 01 00 00    	add    $0x190,%rax
    1bef:	48 39 f0             	cmp    %rsi,%rax
    1bf2:	75 bc                	jne    1bb0 <compute_rhs.isra.0+0x40>
    1bf4:	c7 44 24 24 09 00 00 	movl   $0x9,0x24(%rsp)
    1bfb:	00 
    1bfc:	31 d2                	xor    %edx,%edx
    1bfe:	45 31 f6             	xor    %r14d,%r14d
    1c01:	45 31 ed             	xor    %r13d,%r13d
    1c04:	48 89 4c 24 30       	mov    %rcx,0x30(%rsp)
    1c09:	4c 8d bf 78 0f 00 00 	lea    0xf78(%rdi),%r15
    1c10:	45 31 e4             	xor    %r12d,%r12d
    1c13:	31 ff                	xor    %edi,%edi
    1c15:	4c 89 44 24 38       	mov    %r8,0x38(%rsp)
    1c1a:	45 31 db             	xor    %r11d,%r11d
    1c1d:	0f 1f 00             	nopl   (%rax)
    1c20:	4c 89 7c 24 28       	mov    %r15,0x28(%rsp)
    1c25:	8b 5c 24 24          	mov    0x24(%rsp),%ebx
    1c29:	4d 89 fa             	mov    %r15,%r10
    1c2c:	4d 89 f9             	mov    %r15,%r9
    1c2f:	90                   	nop
    1c30:	4c 89 f0             	mov    %r14,%rax
    1c33:	0f b6 35 ee 73 01 00 	movzbl 0x173ee(%rip),%esi        # 19028 <pqmayo_MAYO_1_opt_unsigned_char_blocker>
    1c3a:	4c 89 ed             	mov    %r13,%rbp
    1c3d:	48 89 f9             	mov    %rdi,%rcx
    1c40:	48 c1 e8 34          	shr    $0x34,%rax
    1c44:	48 c1 ed 3c          	shr    $0x3c,%rbp
    1c48:	4d 89 e7             	mov    %r12,%r15
    1c4b:	44 0f b6 05 d5 73 01 	movzbl 0x173d5(%rip),%r8d        # 19028 <pqmayo_MAYO_1_opt_unsigned_char_blocker>
    1c52:	00 
    1c53:	48 c1 e9 3c          	shr    $0x3c,%rcx
    1c57:	83 e0 0f             	and    $0xf,%eax
    1c5a:	48 89 6c 24 08       	mov    %rbp,0x8(%rsp)
    1c5f:	49 c1 ef 3c          	shr    $0x3c,%r15
    1c63:	31 c6                	xor    %eax,%esi
    1c65:	48 89 4c 24 18       	mov    %rcx,0x18(%rsp)
    1c6a:	41 31 c0             	xor    %eax,%r8d
    1c6d:	83 e6 0f             	and    $0xf,%esi
    1c70:	4c 89 7c 24 10       	mov    %r15,0x10(%rsp)
    1c75:	41 c1 e0 04          	shl    $0x4,%r8d
    1c79:	49 89 d7             	mov    %rdx,%r15
    1c7c:	c1 e6 03             	shl    $0x3,%esi
    1c7f:	48 c1 e2 04          	shl    $0x4,%rdx
    1c83:	89 f5                	mov    %esi,%ebp
    1c85:	89 f1                	mov    %esi,%ecx
    1c87:	41 31 d0             	xor    %edx,%r8d
    1c8a:	49 c1 ef 3c          	shr    $0x3c,%r15
    1c8e:	83 e5 f0             	and    $0xfffffff0,%ebp
    1c91:	c0 e9 04             	shr    $0x4,%cl
    1c94:	48 89 54 24 40       	mov    %rdx,0x40(%rsp)
    1c99:	40 c0 ed 03          	shr    $0x3,%bpl
    1c9d:	31 e9                	xor    %ebp,%ecx
    1c9f:	31 f1                	xor    %esi,%ecx
    1ca1:	0f b6 35 80 73 01 00 	movzbl 0x17380(%rip),%esi        # 19028 <pqmayo_MAYO_1_opt_unsigned_char_blocker>
    1ca8:	83 e1 0f             	and    $0xf,%ecx
    1cab:	31 f0                	xor    %esi,%eax
    1cad:	44 31 c1             	xor    %r8d,%ecx
    1cb0:	4c 8b 44 24 10       	mov    0x10(%rsp),%r8
    1cb5:	4c 89 de             	mov    %r11,%rsi
    1cb8:	83 e0 0f             	and    $0xf,%eax
    1cbb:	88 4c 24 40          	mov    %cl,0x40(%rsp)
    1cbf:	4c 89 d9             	mov    %r11,%rcx
    1cc2:	30 f0                	xor    %dh,%al
    1cc4:	39 5c 24 24          	cmp    %ebx,0x24(%rsp)
    1cc8:	4c 89 da             	mov    %r11,%rdx
    1ccb:	88 44 24 41          	mov    %al,0x41(%rsp)
    1ccf:	0f b6 05 52 73 01 00 	movzbl 0x17352(%rip),%eax        # 19028 <pqmayo_MAYO_1_opt_unsigned_char_blocker>
    1cd6:	0f 95 c0             	setne  %al
    1cd9:	48 8b 6c 24 40       	mov    0x40(%rsp),%rbp
    1cde:	49 33 29             	xor    (%r9),%rbp
    1ce1:	84 c0                	test   %al,%al
    1ce3:	49 0f 45 12          	cmovne (%r10),%rdx
    1ce7:	48 c1 e7 04          	shl    $0x4,%rdi
    1ceb:	4c 31 ff             	xor    %r15,%rdi
    1cee:	4c 8b 7c 24 18       	mov    0x18(%rsp),%r15
    1cf3:	49 33 79 08          	xor    0x8(%r9),%rdi
    1cf7:	48 31 ea             	xor    %rbp,%rdx
    1cfa:	84 c0                	test   %al,%al
    1cfc:	49 0f 45 4a 08       	cmovne 0x8(%r10),%rcx
    1d01:	49 c1 e4 04          	shl    $0x4,%r12
    1d05:	4d 31 fc             	xor    %r15,%r12
    1d08:	4d 33 61 10          	xor    0x10(%r9),%r12
    1d0c:	48 8b 6c 24 08       	mov    0x8(%rsp),%rbp
    1d11:	48 89 54 24 40       	mov    %rdx,0x40(%rsp)
    1d16:	48 31 cf             	xor    %rcx,%rdi
    1d19:	84 c0                	test   %al,%al
    1d1b:	4c 89 d9             	mov    %r11,%rcx
    1d1e:	49 0f 45 4a 10       	cmovne 0x10(%r10),%rcx
    1d23:	49 c1 e5 04          	shl    $0x4,%r13
    1d27:	4d 31 c5             	xor    %r8,%r13
    1d2a:	49 31 cc             	xor    %rcx,%r12
    1d2d:	4d 33 69 18          	xor    0x18(%r9),%r13
    1d31:	84 c0                	test   %al,%al
    1d33:	49 0f 45 72 18       	cmovne 0x18(%r10),%rsi
    1d38:	49 c1 e6 04          	shl    $0x4,%r14
    1d3c:	49 31 ee             	xor    %rbp,%r14
    1d3f:	4d 33 71 20          	xor    0x20(%r9),%r14
    1d43:	49 31 f5             	xor    %rsi,%r13
    1d46:	84 c0                	test   %al,%al
    1d48:	4c 89 d8             	mov    %r11,%rax
    1d4b:	49 0f 45 42 20       	cmovne 0x20(%r10),%rax
    1d50:	83 c3 01             	add    $0x1,%ebx
    1d53:	49 83 c1 28          	add    $0x28,%r9
    1d57:	49 81 c2 90 01 00 00 	add    $0x190,%r10
    1d5e:	49 31 c6             	xor    %rax,%r14
    1d61:	83 fb 0a             	cmp    $0xa,%ebx
    1d64:	0f 85 c6 fe ff ff    	jne    1c30 <compute_rhs.isra.0+0xc0>
    1d6a:	83 6c 24 24 01       	subl   $0x1,0x24(%rsp)
    1d6f:	4c 8b 7c 24 28       	mov    0x28(%rsp),%r15
    1d74:	44 8b 54 24 24       	mov    0x24(%rsp),%r10d
    1d79:	49 81 ef b8 01 00 00 	sub    $0x1b8,%r15
    1d80:	41 83 fa ff          	cmp    $0xffffffff,%r10d
    1d84:	0f 85 96 fe ff ff    	jne    1c20 <compute_rhs.isra.0+0xb0>
    1d8a:	0f b6 4c 24 40       	movzbl 0x40(%rsp),%ecx
    1d8f:	4c 8b 5c 24 30       	mov    0x30(%rsp),%r11
    1d94:	4d 89 f1             	mov    %r14,%r9
    1d97:	48 89 7c 24 48       	mov    %rdi,0x48(%rsp)
    1d9c:	4c 8b 74 24 38       	mov    0x38(%rsp),%r14
    1da1:	0f b6 44 24 41       	movzbl 0x41(%rsp),%eax
    1da6:	4c 89 64 24 50       	mov    %r12,0x50(%rsp)
    1dab:	89 ca                	mov    %ecx,%edx
    1dad:	c0 e9 04             	shr    $0x4,%cl
    1db0:	4c 89 4c 24 60       	mov    %r9,0x60(%rsp)
    1db5:	83 e2 0f             	and    $0xf,%edx
    1db8:	41 32 13             	xor    (%r11),%dl
    1dbb:	89 c3                	mov    %eax,%ebx
    1dbd:	c0 e8 04             	shr    $0x4,%al
    1dc0:	41 88 16             	mov    %dl,(%r14)
    1dc3:	41 32 4b 01          	xor    0x1(%r11),%cl
    1dc7:	83 e3 0f             	and    $0xf,%ebx
    1dca:	41 88 4e 01          	mov    %cl,0x1(%r14)
    1dce:	0f b6 4c 24 42       	movzbl 0x42(%rsp),%ecx
    1dd3:	41 32 5b 02          	xor    0x2(%r11),%bl
    1dd7:	4c 89 6c 24 58       	mov    %r13,0x58(%rsp)
    1ddc:	41 bd 06 00 00 00    	mov    $0x6,%r13d
    1de2:	41 88 5e 02          	mov    %bl,0x2(%r14)
    1de6:	89 ca                	mov    %ecx,%edx
    1de8:	41 32 43 03          	xor    0x3(%r11),%al
    1dec:	c0 e9 04             	shr    $0x4,%cl
    1def:	41 88 46 03          	mov    %al,0x3(%r14)
    1df3:	83 e2 0f             	and    $0xf,%edx
    1df6:	41 32 53 04          	xor    0x4(%r11),%dl
    1dfa:	41 88 56 04          	mov    %dl,0x4(%r14)
    1dfe:	41 32 4b 05          	xor    0x5(%r11),%cl
    1e02:	41 88 4e 05          	mov    %cl,0x5(%r14)
    1e06:	66 2e 0f 1f 84 00 00 	cs nopw 0x0(%rax,%rax,1)
    1e0d:	00 00 00 
    1e10:	44 89 ef             	mov    %r13d,%edi
    1e13:	49 8d 55 02          	lea    0x2(%r13),%rdx
    1e17:	d1 ff                	sar    $1,%edi
    1e19:	d1 fa                	sar    $1,%edx
    1e1b:	4c 63 c7             	movslq %edi,%r8
    1e1e:	4c 63 fa             	movslq %edx,%r15
    1e21:	49 8d 55 04          	lea    0x4(%r13),%rdx
    1e25:	42 0f b6 6c 04 40    	movzbl 0x40(%rsp,%r8,1),%ebp
    1e2b:	42 0f b6 44 3c 40    	movzbl 0x40(%rsp,%r15,1),%eax
    1e31:	d1 fa                	sar    $1,%edx
    1e33:	4d 8d 45 0a          	lea    0xa(%r13),%r8
    1e37:	4c 63 d2             	movslq %edx,%r10
    1e3a:	49 8d 55 06          	lea    0x6(%r13),%rdx
    1e3e:	45 89 c7             	mov    %r8d,%r15d
    1e41:	89 ee                	mov    %ebp,%esi
    1e43:	42 0f b6 4c 14 40    	movzbl 0x40(%rsp,%r10,1),%ecx
    1e49:	d1 fa                	sar    $1,%edx
    1e4b:	89 c3                	mov    %eax,%ebx
    1e4d:	83 e6 0f             	and    $0xf,%esi
    1e50:	43 32 34 2b          	xor    (%r11,%r13,1),%sil
    1e54:	40 c0 ed 04          	shr    $0x4,%bpl
    1e58:	83 e3 0f             	and    $0xf,%ebx
    1e5b:	43 88 34 2e          	mov    %sil,(%r14,%r13,1)
    1e5f:	43 32 6c 2b 01       	xor    0x1(%r11,%r13,1),%bpl
    1e64:	4c 63 ca             	movslq %edx,%r9
    1e67:	49 8d 55 08          	lea    0x8(%r13),%rdx
    1e6b:	43 88 6c 2e 01       	mov    %bpl,0x1(%r14,%r13,1)
    1e70:	43 32 5c 2b 02       	xor    0x2(%r11,%r13,1),%bl
    1e75:	c0 e8 04             	shr    $0x4,%al
    1e78:	89 cf                	mov    %ecx,%edi
    1e7a:	43 88 5c 2e 02       	mov    %bl,0x2(%r14,%r13,1)
    1e7f:	42 0f b6 6c 0c 40    	movzbl 0x40(%rsp,%r9,1),%ebp
    1e85:	d1 fa                	sar    $1,%edx
    1e87:	83 e7 0f             	and    $0xf,%edi
    1e8a:	c0 e9 04             	shr    $0x4,%cl
    1e8d:	43 32 44 2b 03       	xor    0x3(%r11,%r13,1),%al
    1e92:	4c 63 e2             	movslq %edx,%r12
    1e95:	41 d1 ff             	sar    $1,%r15d
    1e98:	43 88 44 2e 03       	mov    %al,0x3(%r14,%r13,1)
    1e9d:	43 32 7c 2b 04       	xor    0x4(%r11,%r13,1),%dil
    1ea2:	89 ee                	mov    %ebp,%esi
    1ea4:	4d 63 d7             	movslq %r15d,%r10
    1ea7:	43 88 7c 2e 04       	mov    %dil,0x4(%r14,%r13,1)
    1eac:	43 32 4c 2b 05       	xor    0x5(%r11,%r13,1),%cl
    1eb1:	83 e6 0f             	and    $0xf,%esi
    1eb4:	40 c0 ed 04          	shr    $0x4,%bpl
    1eb8:	42 0f b6 44 24 40    	movzbl 0x40(%rsp,%r12,1),%eax
    1ebe:	43 88 4c 2e 05       	mov    %cl,0x5(%r14,%r13,1)
    1ec3:	43 32 74 2b 06       	xor    0x6(%r11,%r13,1),%sil
    1ec8:	42 0f b6 4c 14 40    	movzbl 0x40(%rsp,%r10,1),%ecx
    1ece:	43 88 74 2e 06       	mov    %sil,0x6(%r14,%r13,1)
    1ed3:	89 c3                	mov    %eax,%ebx
    1ed5:	43 32 6c 2b 07       	xor    0x7(%r11,%r13,1),%bpl
    1eda:	c0 e8 04             	shr    $0x4,%al
    1edd:	43 88 6c 2e 07       	mov    %bpl,0x7(%r14,%r13,1)
    1ee2:	83 e3 0f             	and    $0xf,%ebx
    1ee5:	43 32 5c 2b 08       	xor    0x8(%r11,%r13,1),%bl
    1eea:	89 cf                	mov    %ecx,%edi
    1eec:	43 88 5c 2e 08       	mov    %bl,0x8(%r14,%r13,1)
    1ef1:	43 32 44 2b 09       	xor    0x9(%r11,%r13,1),%al
    1ef6:	83 e7 0f             	and    $0xf,%edi
    1ef9:	c0 e9 04             	shr    $0x4,%cl
    1efc:	43 88 44 2e 09       	mov    %al,0x9(%r14,%r13,1)
    1f01:	43 32 7c 2b 0a       	xor    0xa(%r11,%r13,1),%dil
    1f06:	43 88 7c 2e 0a       	mov    %dil,0xa(%r14,%r13,1)
    1f0b:	49 83 c5 0c          	add    $0xc,%r13
    1f0f:	43 32 4c 03 01       	xor    0x1(%r11,%r8,1),%cl
    1f14:	49 83 fd 4e          	cmp    $0x4e,%r13
    1f18:	43 88 4c 06 01       	mov    %cl,0x1(%r14,%r8,1)
    1f1d:	0f 85 ed fe ff ff    	jne    1e10 <compute_rhs.isra.0+0x2a0>
    1f23:	48 8b 44 24 68       	mov    0x68(%rsp),%rax
    1f28:	64 48 2b 04 25 28 00 	sub    %fs:0x28,%rax
    1f2f:	00 00 
    1f31:	75 0f                	jne    1f42 <compute_rhs.isra.0+0x3d2>
    1f33:	48 83 c4 78          	add    $0x78,%rsp
    1f37:	5b                   	pop    %rbx
    1f38:	5d                   	pop    %rbp
    1f39:	41 5c                	pop    %r12
    1f3b:	41 5d                	pop    %r13
    1f3d:	41 5e                	pop    %r14
    1f3f:	41 5f                	pop    %r15
    1f41:	c3                   	ret
    1f42:	e8 09 f2 ff ff       	call   1150 <__stack_chk_fail@plt>
    1f47:	66 0f 1f 84 00 00 00 	nopw   0x0(%rax,%rax,1)
    1f4e:	00 00 

0000000000001f50 <P1_times_O.isra.0>:
    1f50:	41 57                	push   %r15
    1f52:	45 31 ff             	xor    %r15d,%r15d
    1f55:	4c 8d 96 70 02 00 00 	lea    0x270(%rsi),%r10
    1f5c:	48 b8 11 11 11 11 11 	movabs $0x1111111111111111,%rax
    1f63:	11 11 11 
    1f66:	41 56                	push   %r14
    1f68:	49 89 fe             	mov    %rdi,%r14
    1f6b:	41 55                	push   %r13
    1f6d:	41 54                	push   %r12
    1f6f:	45 31 e4             	xor    %r12d,%r12d
    1f72:	55                   	push   %rbp
    1f73:	53                   	push   %rbx
    1f74:	48 89 d3             	mov    %rdx,%rbx
    1f77:	43 8d 14 bf          	lea    (%r15,%r15,4),%edx
    1f7b:	49 89 f1             	mov    %rsi,%r9
    1f7e:	49 89 f3             	mov    %rsi,%r11
    1f81:	45 89 e5             	mov    %r12d,%r13d
    1f84:	48 63 ca             	movslq %edx,%rcx
    1f87:	49 8d 3c ce          	lea    (%r14,%rcx,8),%rdi
    1f8b:	0f 1f 44 00 00       	nopl   0x0(%rax,%rax,1)
    1f90:	4c 89 4c 24 d8       	mov    %r9,-0x28(%rsp)
    1f95:	48 89 de             	mov    %rbx,%rsi
    1f98:	4d 8d 41 08          	lea    0x8(%r9),%r8
    1f9c:	0f 1f 40 00          	nopl   0x0(%rax)
    1fa0:	48 8b 6c 24 d8       	mov    -0x28(%rsp),%rbp
    1fa5:	0f b6 55 00          	movzbl 0x0(%rbp),%edx
    1fa9:	69 ca 01 02 04 08    	imul   $0x8040201,%edx,%ecx
    1faf:	89 cd                	mov    %ecx,%ebp
    1fb1:	81 e5 f0 f0 f0 f0    	and    $0xf0f0f0f0,%ebp
    1fb7:	41 89 e9             	mov    %ebp,%r9d
    1fba:	c1 ed 03             	shr    $0x3,%ebp
    1fbd:	41 c1 e9 04          	shr    $0x4,%r9d
    1fc1:	41 31 e9             	xor    %ebp,%r9d
    1fc4:	41 31 c9             	xor    %ecx,%r9d
    1fc7:	48 8b 0f             	mov    (%rdi),%rcx
    1fca:	41 0f b6 d1          	movzbl %r9b,%edx
    1fce:	48 89 54 24 e0       	mov    %rdx,-0x20(%rsp)
    1fd3:	44 89 ca             	mov    %r9d,%edx
    1fd6:	48 89 cd             	mov    %rcx,%rbp
    1fd9:	c1 ea 08             	shr    $0x8,%edx
    1fdc:	48 21 c5             	and    %rax,%rbp
    1fdf:	83 e2 0f             	and    $0xf,%edx
    1fe2:	48 89 54 24 e8       	mov    %rdx,-0x18(%rsp)
    1fe7:	44 89 ca             	mov    %r9d,%edx
    1fea:	41 c1 e9 18          	shr    $0x18,%r9d
    1fee:	c1 ea 10             	shr    $0x10,%edx
    1ff1:	41 83 e1 0f          	and    $0xf,%r9d
    1ff5:	83 e2 0f             	and    $0xf,%edx
    1ff8:	4c 89 4c 24 f8       	mov    %r9,-0x8(%rsp)
    1ffd:	49 89 c9             	mov    %rcx,%r9
    2000:	48 89 54 24 f0       	mov    %rdx,-0x10(%rsp)
    2005:	48 8b 54 24 e0       	mov    -0x20(%rsp),%rdx
    200a:	49 d1 e9             	shr    $1,%r9
    200d:	49 21 c1             	and    %rax,%r9
    2010:	48 0f af ea          	imul   %rdx,%rbp
    2014:	48 8b 54 24 e8       	mov    -0x18(%rsp),%rdx
    2019:	48 33 2e             	xor    (%rsi),%rbp
    201c:	4c 0f af ca          	imul   %rdx,%r9
    2020:	48 8b 54 24 f0       	mov    -0x10(%rsp),%rdx
    2025:	4c 31 cd             	xor    %r9,%rbp
    2028:	49 89 c9             	mov    %rcx,%r9
    202b:	48 c1 e9 03          	shr    $0x3,%rcx
    202f:	49 c1 e9 02          	shr    $0x2,%r9
    2033:	48 21 c1             	and    %rax,%rcx
    2036:	49 21 c1             	and    %rax,%r9
    2039:	4c 0f af ca          	imul   %rdx,%r9
    203d:	48 8b 54 24 e8       	mov    -0x18(%rsp),%rdx
    2042:	49 31 e9             	xor    %rbp,%r9
    2045:	48 8b 6c 24 f8       	mov    -0x8(%rsp),%rbp
    204a:	48 0f af cd          	imul   %rbp,%rcx
    204e:	49 31 c9             	xor    %rcx,%r9
    2051:	4c 89 0e             	mov    %r9,(%rsi)
    2054:	48 8b 4f 08          	mov    0x8(%rdi),%rcx
    2058:	4c 8b 4c 24 e0       	mov    -0x20(%rsp),%r9
    205d:	48 89 cd             	mov    %rcx,%rbp
    2060:	48 21 c5             	and    %rax,%rbp
    2063:	49 0f af e9          	imul   %r9,%rbp
    2067:	49 89 c9             	mov    %rcx,%r9
    206a:	48 33 6e 08          	xor    0x8(%rsi),%rbp
    206e:	49 d1 e9             	shr    $1,%r9
    2071:	49 21 c1             	and    %rax,%r9
    2074:	4c 0f af ca          	imul   %rdx,%r9
    2078:	48 8b 54 24 f0       	mov    -0x10(%rsp),%rdx
    207d:	4c 31 cd             	xor    %r9,%rbp
    2080:	49 89 c9             	mov    %rcx,%r9
    2083:	48 c1 e9 03          	shr    $0x3,%rcx
    2087:	49 c1 e9 02          	shr    $0x2,%r9
    208b:	48 21 c1             	and    %rax,%rcx
    208e:	49 21 c1             	and    %rax,%r9
    2091:	4c 0f af ca          	imul   %rdx,%r9
    2095:	48 8b 54 24 e8       	mov    -0x18(%rsp),%rdx
    209a:	49 31 e9             	xor    %rbp,%r9
    209d:	48 8b 6c 24 f8       	mov    -0x8(%rsp),%rbp
    20a2:	48 0f af cd          	imul   %rbp,%rcx
    20a6:	49 31 c9             	xor    %rcx,%r9
    20a9:	4c 89 4e 08          	mov    %r9,0x8(%rsi)
    20ad:	48 8b 4f 10          	mov    0x10(%rdi),%rcx
    20b1:	4c 8b 4c 24 e0       	mov    -0x20(%rsp),%r9
    20b6:	48 89 cd             	mov    %rcx,%rbp
    20b9:	48 21 c5             	and    %rax,%rbp
    20bc:	49 0f af e9          	imul   %r9,%rbp
    20c0:	49 89 c9             	mov    %rcx,%r9
    20c3:	48 33 6e 10          	xor    0x10(%rsi),%rbp
    20c7:	49 d1 e9             	shr    $1,%r9
    20ca:	49 21 c1             	and    %rax,%r9
    20cd:	4c 0f af ca          	imul   %rdx,%r9
    20d1:	48 8b 54 24 f0       	mov    -0x10(%rsp),%rdx
    20d6:	4c 31 cd             	xor    %r9,%rbp
    20d9:	49 89 c9             	mov    %rcx,%r9
    20dc:	48 c1 e9 03          	shr    $0x3,%rcx
    20e0:	49 c1 e9 02          	shr    $0x2,%r9
    20e4:	48 21 c1             	and    %rax,%rcx
    20e7:	49 21 c1             	and    %rax,%r9
    20ea:	4c 0f af ca          	imul   %rdx,%r9
    20ee:	48 8b 54 24 e8       	mov    -0x18(%rsp),%rdx
    20f3:	49 31 e9             	xor    %rbp,%r9
    20f6:	48 8b 6c 24 f8       	mov    -0x8(%rsp),%rbp
    20fb:	48 0f af cd          	imul   %rbp,%rcx
    20ff:	49 31 c9             	xor    %rcx,%r9
    2102:	4c 89 4e 10          	mov    %r9,0x10(%rsi)
    2106:	48 8b 4f 18          	mov    0x18(%rdi),%rcx
    210a:	4c 8b 4c 24 e0       	mov    -0x20(%rsp),%r9
    210f:	48 89 cd             	mov    %rcx,%rbp
    2112:	48 21 c5             	and    %rax,%rbp
    2115:	49 0f af e9          	imul   %r9,%rbp
    2119:	49 89 c9             	mov    %rcx,%r9
    211c:	48 33 6e 18          	xor    0x18(%rsi),%rbp
    2120:	49 d1 e9             	shr    $1,%r9
    2123:	49 21 c1             	and    %rax,%r9
    2126:	4c 0f af ca          	imul   %rdx,%r9
    212a:	48 8b 54 24 f0       	mov    -0x10(%rsp),%rdx
    212f:	4c 31 cd             	xor    %r9,%rbp
    2132:	49 89 c9             	mov    %rcx,%r9
    2135:	49 c1 e9 02          	shr    $0x2,%r9
    2139:	48 c1 e9 03          	shr    $0x3,%rcx
    213d:	48 83 c6 28          	add    $0x28,%rsi
    2141:	49 21 c1             	and    %rax,%r9
    2144:	48 21 c1             	and    %rax,%rcx
    2147:	4c 0f af ca          	imul   %rdx,%r9
    214b:	49 31 e9             	xor    %rbp,%r9
    214e:	48 8b 6c 24 f8       	mov    -0x8(%rsp),%rbp
    2153:	48 8b 54 24 e8       	mov    -0x18(%rsp),%rdx
    2158:	48 83 44 24 d8 01    	addq   $0x1,-0x28(%rsp)
    215e:	48 0f af cd          	imul   %rbp,%rcx
    2162:	49 31 c9             	xor    %rcx,%r9
    2165:	4c 89 4e f0          	mov    %r9,-0x10(%rsi)
    2169:	48 8b 4f 20          	mov    0x20(%rdi),%rcx
    216d:	4c 8b 4c 24 e0       	mov    -0x20(%rsp),%r9
    2172:	48 89 cd             	mov    %rcx,%rbp
    2175:	48 21 c5             	and    %rax,%rbp
    2178:	49 0f af e9          	imul   %r9,%rbp
    217c:	49 89 c9             	mov    %rcx,%r9
    217f:	48 33 6e f8          	xor    -0x8(%rsi),%rbp
    2183:	49 d1 e9             	shr    $1,%r9
    2186:	49 21 c1             	and    %rax,%r9
    2189:	4c 0f af ca          	imul   %rdx,%r9
    218d:	48 8b 54 24 f0       	mov    -0x10(%rsp),%rdx
    2192:	49 31 e9             	xor    %rbp,%r9
    2195:	48 89 cd             	mov    %rcx,%rbp
    2198:	48 c1 e9 03          	shr    $0x3,%rcx
    219c:	48 c1 ed 02          	shr    $0x2,%rbp
    21a0:	48 21 c1             	and    %rax,%rcx
    21a3:	48 21 c5             	and    %rax,%rbp
    21a6:	48 0f af ea          	imul   %rdx,%rbp
    21aa:	4c 31 cd             	xor    %r9,%rbp
    21ad:	4c 8b 4c 24 f8       	mov    -0x8(%rsp),%r9
    21b2:	49 0f af c9          	imul   %r9,%rcx
    21b6:	48 31 cd             	xor    %rcx,%rbp
    21b9:	48 8b 4c 24 d8       	mov    -0x28(%rsp),%rcx
    21be:	48 89 6e f8          	mov    %rbp,-0x8(%rsi)
    21c2:	49 39 c8             	cmp    %rcx,%r8
    21c5:	0f 85 d5 fd ff ff    	jne    1fa0 <P1_times_O.isra.0+0x50>
    21cb:	48 83 c7 28          	add    $0x28,%rdi
    21cf:	4d 39 d0             	cmp    %r10,%r8
    21d2:	74 08                	je     21dc <P1_times_O.isra.0+0x28c>
    21d4:	4d 89 c1             	mov    %r8,%r9
    21d7:	e9 b4 fd ff ff       	jmp    1f90 <P1_times_O.isra.0+0x40>
    21dc:	41 83 c7 4e          	add    $0x4e,%r15d
    21e0:	4c 89 de             	mov    %r11,%rsi
    21e3:	49 83 c4 01          	add    $0x1,%r12
    21e7:	48 81 c3 40 01 00 00 	add    $0x140,%rbx
    21ee:	45 29 ef             	sub    %r13d,%r15d
    21f1:	48 83 c6 08          	add    $0x8,%rsi
    21f5:	49 83 fc 4e          	cmp    $0x4e,%r12
    21f9:	0f 85 78 fd ff ff    	jne    1f77 <P1_times_O.isra.0+0x27>
    21ff:	5b                   	pop    %rbx
    2200:	5d                   	pop    %rbp
    2201:	41 5c                	pop    %r12
    2203:	41 5d                	pop    %r13
    2205:	41 5e                	pop    %r14
    2207:	41 5f                	pop    %r15
    2209:	c3                   	ret
    220a:	66 0f 1f 44 00 00    	nopw   0x0(%rax,%rax,1)

0000000000002210 <compute_P3.isra.0>:
    2210:	41 57                	push   %r15
    2212:	49 89 d7             	mov    %rdx,%r15
    2215:	48 89 f2             	mov    %rsi,%rdx
    2218:	41 56                	push   %r14
    221a:	49 89 f6             	mov    %rsi,%r14
    221d:	4c 89 fe             	mov    %r15,%rsi
    2220:	41 55                	push   %r13
    2222:	4d 89 fd             	mov    %r15,%r13
    2225:	41 54                	push   %r12
    2227:	55                   	push   %rbp
    2228:	53                   	push   %rbx
    2229:	48 89 cb             	mov    %rcx,%rbx
    222c:	48 8d ab 40 01 00 00 	lea    0x140(%rbx),%rbp
    2233:	48 83 ec 20          	sub    $0x20,%rsp
    2237:	e8 14 fd ff ff       	call   1f50 <P1_times_O.isra.0>
    223c:	49 89 da             	mov    %rbx,%r10
    223f:	31 ff                	xor    %edi,%edi
    2241:	49 8d 9e 80 61 00 00 	lea    0x6180(%r14),%rbx
    2248:	48 b8 11 11 11 11 11 	movabs $0x1111111111111111,%rax
    224f:	11 11 11 
    2252:	4c 89 f6             	mov    %r14,%rsi
    2255:	4d 89 f3             	mov    %r14,%r11
    2258:	4d 8d 4c 3d 00       	lea    0x0(%r13,%rdi,1),%r9
    225d:	49 89 fe             	mov    %rdi,%r14
    2260:	48 89 f7             	mov    %rsi,%rdi
    2263:	4c 89 d2             	mov    %r10,%rdx
    2266:	66 2e 0f 1f 84 00 00 	cs nopw 0x0(%rax,%rax,1)
    226d:	00 00 00 
    2270:	41 0f b6 09          	movzbl (%r9),%ecx
    2274:	44 69 f9 01 02 04 08 	imul   $0x8040201,%ecx,%r15d
    227b:	48 8b 0f             	mov    (%rdi),%rcx
    227e:	45 89 f8             	mov    %r15d,%r8d
    2281:	41 81 e0 f0 f0 f0 f0 	and    $0xf0f0f0f0,%r8d
    2288:	45 89 c4             	mov    %r8d,%r12d
    228b:	41 c1 e8 03          	shr    $0x3,%r8d
    228f:	41 c1 ec 04          	shr    $0x4,%r12d
    2293:	45 31 c4             	xor    %r8d,%r12d
    2296:	45 31 fc             	xor    %r15d,%r12d
    2299:	45 89 e0             	mov    %r12d,%r8d
    229c:	45 0f b6 fc          	movzbl %r12b,%r15d
    22a0:	41 c1 e8 08          	shr    $0x8,%r8d
    22a4:	4c 89 3c 24          	mov    %r15,(%rsp)
    22a8:	49 89 cf             	mov    %rcx,%r15
    22ab:	41 83 e0 0f          	and    $0xf,%r8d
    22af:	49 21 c7             	and    %rax,%r15
    22b2:	4c 89 44 24 08       	mov    %r8,0x8(%rsp)
    22b7:	45 89 e0             	mov    %r12d,%r8d
    22ba:	41 c1 ec 18          	shr    $0x18,%r12d
    22be:	41 c1 e8 10          	shr    $0x10,%r8d
    22c2:	41 83 e4 0f          	and    $0xf,%r12d
    22c6:	41 83 e0 0f          	and    $0xf,%r8d
    22ca:	4c 89 64 24 18       	mov    %r12,0x18(%rsp)
    22cf:	49 89 cc             	mov    %rcx,%r12
    22d2:	4c 89 44 24 10       	mov    %r8,0x10(%rsp)
    22d7:	4c 8b 04 24          	mov    (%rsp),%r8
    22db:	49 d1 ec             	shr    $1,%r12
    22de:	49 21 c4             	and    %rax,%r12
    22e1:	4d 0f af f8          	imul   %r8,%r15
    22e5:	4c 8b 44 24 08       	mov    0x8(%rsp),%r8
    22ea:	4c 33 3a             	xor    (%rdx),%r15
    22ed:	4d 0f af e0          	imul   %r8,%r12
    22f1:	4c 8b 44 24 10       	mov    0x10(%rsp),%r8
    22f6:	4d 31 e7             	xor    %r12,%r15
    22f9:	49 89 cc             	mov    %rcx,%r12
    22fc:	48 c1 e9 03          	shr    $0x3,%rcx
    2300:	49 c1 ec 02          	shr    $0x2,%r12
    2304:	48 21 c1             	and    %rax,%rcx
    2307:	49 21 c4             	and    %rax,%r12
    230a:	4d 0f af e0          	imul   %r8,%r12
    230e:	4c 8b 44 24 08       	mov    0x8(%rsp),%r8
    2313:	4d 31 fc             	xor    %r15,%r12
    2316:	4c 8b 7c 24 18       	mov    0x18(%rsp),%r15
    231b:	49 0f af cf          	imul   %r15,%rcx
    231f:	49 31 cc             	xor    %rcx,%r12
    2322:	4c 89 22             	mov    %r12,(%rdx)
    2325:	48 8b 4f 08          	mov    0x8(%rdi),%rcx
    2329:	4c 8b 24 24          	mov    (%rsp),%r12
    232d:	49 89 cf             	mov    %rcx,%r15
    2330:	49 21 c7             	and    %rax,%r15
    2333:	4d 0f af fc          	imul   %r12,%r15
    2337:	49 89 cc             	mov    %rcx,%r12
    233a:	4c 33 7a 08          	xor    0x8(%rdx),%r15
    233e:	49 d1 ec             	shr    $1,%r12
    2341:	49 21 c4             	and    %rax,%r12
    2344:	4d 0f af e0          	imul   %r8,%r12
    2348:	4c 8b 44 24 10       	mov    0x10(%rsp),%r8
    234d:	4d 31 e7             	xor    %r12,%r15
    2350:	49 89 cc             	mov    %rcx,%r12
    2353:	48 c1 e9 03          	shr    $0x3,%rcx
    2357:	49 c1 ec 02          	shr    $0x2,%r12
    235b:	48 21 c1             	and    %rax,%rcx
    235e:	49 21 c4             	and    %rax,%r12
    2361:	4d 0f af e0          	imul   %r8,%r12
    2365:	4c 8b 44 24 08       	mov    0x8(%rsp),%r8
    236a:	4d 31 fc             	xor    %r15,%r12
    236d:	4c 8b 7c 24 18       	mov    0x18(%rsp),%r15
    2372:	49 0f af cf          	imul   %r15,%rcx
    2376:	49 31 cc             	xor    %rcx,%r12
    2379:	4c 89 62 08          	mov    %r12,0x8(%rdx)
    237d:	48 8b 4f 10          	mov    0x10(%rdi),%rcx
    2381:	4c 8b 24 24          	mov    (%rsp),%r12
    2385:	49 89 cf             	mov    %rcx,%r15
    2388:	49 21 c7             	and    %rax,%r15
    238b:	4d 0f af fc          	imul   %r12,%r15
    238f:	49 89 cc             	mov    %rcx,%r12
    2392:	4c 33 7a 10          	xor    0x10(%rdx),%r15
    2396:	49 d1 ec             	shr    $1,%r12
    2399:	49 21 c4             	and    %rax,%r12
    239c:	4d 0f af e0          	imul   %r8,%r12
    23a0:	4c 8b 44 24 10       	mov    0x10(%rsp),%r8
    23a5:	4d 31 e7             	xor    %r12,%r15
    23a8:	49 89 cc             	mov    %rcx,%r12
    23ab:	48 c1 e9 03          	shr    $0x3,%rcx
    23af:	49 c1 ec 02          	shr    $0x2,%r12
    23b3:	48 21 c1             	and    %rax,%rcx
    23b6:	49 21 c4             	and    %rax,%r12
    23b9:	4d 0f af e0          	imul   %r8,%r12
    23bd:	4c 8b 44 24 08       	mov    0x8(%rsp),%r8
    23c2:	4d 31 fc             	xor    %r15,%r12
    23c5:	4c 8b 7c 24 18       	mov    0x18(%rsp),%r15
    23ca:	49 0f af cf          	imul   %r15,%rcx
    23ce:	49 31 cc             	xor    %rcx,%r12
    23d1:	4c 89 62 10          	mov    %r12,0x10(%rdx)
    23d5:	48 8b 4f 18          	mov    0x18(%rdi),%rcx
    23d9:	4c 8b 24 24          	mov    (%rsp),%r12
    23dd:	49 89 cf             	mov    %rcx,%r15
    23e0:	49 21 c7             	and    %rax,%r15
    23e3:	4d 0f af fc          	imul   %r12,%r15
    23e7:	49 89 cc             	mov    %rcx,%r12
    23ea:	4c 33 7a 18          	xor    0x18(%rdx),%r15
    23ee:	49 d1 ec             	shr    $1,%r12
    23f1:	49 21 c4             	and    %rax,%r12
    23f4:	4d 0f af e0          	imul   %r8,%r12
    23f8:	4c 8b 44 24 10       	mov    0x10(%rsp),%r8
    23fd:	4d 31 e7             	xor    %r12,%r15
    2400:	49 89 cc             	mov    %rcx,%r12
    2403:	49 c1 ec 02          	shr    $0x2,%r12
    2407:	48 c1 e9 03          	shr    $0x3,%rcx
    240b:	48 83 c2 28          	add    $0x28,%rdx
    240f:	48 83 c7 28          	add    $0x28,%rdi
    2413:	49 21 c4             	and    %rax,%r12
    2416:	48 21 c1             	and    %rax,%rcx
    2419:	4d 0f af e0          	imul   %r8,%r12
    241d:	4d 31 fc             	xor    %r15,%r12
    2420:	4c 8b 7c 24 18       	mov    0x18(%rsp),%r15
    2425:	49 0f af cf          	imul   %r15,%rcx
    2429:	49 31 cc             	xor    %rcx,%r12
    242c:	4c 89 62 f0          	mov    %r12,-0x10(%rdx)
    2430:	48 8b 4f f8          	mov    -0x8(%rdi),%rcx
    2434:	4c 8b 04 24          	mov    (%rsp),%r8
    2438:	4c 8b 7c 24 08       	mov    0x8(%rsp),%r15
    243d:	49 89 cc             	mov    %rcx,%r12
    2440:	49 21 c4             	and    %rax,%r12
    2443:	4d 0f af e0          	imul   %r8,%r12
    2447:	49 89 c8             	mov    %rcx,%r8
    244a:	4c 33 62 f8          	xor    -0x8(%rdx),%r12
    244e:	49 d1 e8             	shr    $1,%r8
    2451:	49 21 c0             	and    %rax,%r8
    2454:	4d 0f af c7          	imul   %r15,%r8
    2458:	4c 8b 7c 24 10       	mov    0x10(%rsp),%r15
    245d:	4d 31 e0             	xor    %r12,%r8
    2460:	49 89 cc             	mov    %rcx,%r12
    2463:	48 c1 e9 03          	shr    $0x3,%rcx
    2467:	49 c1 ec 02          	shr    $0x2,%r12
    246b:	48 21 c1             	and    %rax,%rcx
    246e:	49 21 c4             	and    %rax,%r12
    2471:	4d 0f af e7          	imul   %r15,%r12
    2475:	4d 31 c4             	xor    %r8,%r12
    2478:	4c 8b 44 24 18       	mov    0x18(%rsp),%r8
    247d:	49 0f af c8          	imul   %r8,%rcx
    2481:	49 31 cc             	xor    %rcx,%r12
    2484:	4c 89 62 f8          	mov    %r12,-0x8(%rdx)
    2488:	48 39 d5             	cmp    %rdx,%rbp
    248b:	0f 85 df fd ff ff    	jne    2270 <compute_P3.isra.0+0x60>
    2491:	48 81 c6 40 01 00 00 	add    $0x140,%rsi
    2498:	49 83 c1 08          	add    $0x8,%r9
    249c:	48 39 f3             	cmp    %rsi,%rbx
    249f:	0f 85 bb fd ff ff    	jne    2260 <compute_P3.isra.0+0x50>
    24a5:	4c 89 f7             	mov    %r14,%rdi
    24a8:	49 81 c2 40 01 00 00 	add    $0x140,%r10
    24af:	4d 89 de             	mov    %r11,%r14
    24b2:	48 81 c5 40 01 00 00 	add    $0x140,%rbp
    24b9:	48 83 c7 01          	add    $0x1,%rdi
    24bd:	48 83 ff 08          	cmp    $0x8,%rdi
    24c1:	0f 85 8b fd ff ff    	jne    2252 <compute_P3.isra.0+0x42>
    24c7:	48 83 c4 20          	add    $0x20,%rsp
    24cb:	5b                   	pop    %rbx
    24cc:	5d                   	pop    %rbp
    24cd:	41 5c                	pop    %r12
    24cf:	41 5d                	pop    %r13
    24d1:	41 5e                	pop    %r14
    24d3:	41 5f                	pop    %r15
    24d5:	c3                   	ret
    24d6:	66 2e 0f 1f 84 00 00 	cs nopw 0x0(%rax,%rax,1)
    24dd:	00 00 00 

00000000000024e0 <pqmayo_MAYO_1_opt_mayo_expand_sk>:
    24e0:	f3 0f 1e fa          	endbr64
    24e4:	55                   	push   %rbp
    24e5:	b9 18 00 00 00       	mov    $0x18,%ecx
    24ea:	48 89 e5             	mov    %rsp,%rbp
    24ed:	41 57                	push   %r15
    24ef:	49 89 d7             	mov    %rdx,%r15
    24f2:	41 56                	push   %r14
    24f4:	41 55                	push   %r13
    24f6:	41 54                	push   %r12
    24f8:	53                   	push   %rbx
    24f9:	48 83 e4 e0          	and    $0xffffffffffffffe0,%rsp
    24fd:	48 81 ec e0 01 00 00 	sub    $0x1e0,%rsp
    2504:	64 48 8b 14 25 28 00 	mov    %fs:0x28,%rdx
    250b:	00 00 
    250d:	48 89 94 24 d8 01 00 	mov    %rdx,0x1d8(%rsp)
    2514:	00 
    2515:	31 d2                	xor    %edx,%edx
    2517:	48 8d 9c 24 80 00 00 	lea    0x80(%rsp),%rbx
    251e:	00 
    251f:	48 89 f2             	mov    %rsi,%rdx
    2522:	be 48 01 00 00       	mov    $0x148,%esi
    2527:	48 89 df             	mov    %rbx,%rdi
    252a:	e8 31 0f 01 00       	call   13460 <shake256>
    252f:	b8 0f 00 00 00       	mov    $0xf,%eax
    2534:	4c 89 ff             	mov    %r15,%rdi
    2537:	c5 7e 6f 9c 24 b0 00 	vmovdqu 0xb0(%rsp),%ymm11
    253e:	00 00 
    2540:	c5 f9 6e c0          	vmovd  %eax,%xmm0
    2544:	be 6f 34 02 00       	mov    $0x2346f,%esi
    2549:	c5 fe 6f a4 24 90 00 	vmovdqu 0x90(%rsp),%ymm4
    2550:	00 00 
    2552:	c4 62 7d 78 c0       	vpbroadcastb %xmm0,%ymm8
    2557:	c4 c1 1d 71 d3 04    	vpsrlw $0x4,%ymm11,%ymm12
    255d:	c5 3d db 94 24 b0 00 	vpand  0xb0(%rsp),%ymm8,%ymm10
    2564:	00 00 
    2566:	c4 41 3d db ec       	vpand  %ymm12,%ymm8,%ymm13
    256b:	c5 f5 71 d4 04       	vpsrlw $0x4,%ymm4,%ymm1
    2570:	c5 7e 6f a4 24 f0 00 	vmovdqu 0xf0(%rsp),%ymm12
    2577:	00 00 
    2579:	c5 bd db 94 24 90 00 	vpand  0x90(%rsp),%ymm8,%ymm2
    2580:	00 00 
    2582:	c5 bd db e9          	vpand  %ymm1,%ymm8,%ymm5
    2586:	c4 41 2d 60 f5       	vpunpcklbw %ymm13,%ymm10,%ymm14
    258b:	c4 41 2d 68 fd       	vpunpckhbw %ymm13,%ymm10,%ymm15
    2590:	c5 fe 6f 8c 24 d0 00 	vmovdqu 0xd0(%rsp),%ymm1
    2597:	00 00 
    2599:	c4 c1 15 71 d4 04    	vpsrlw $0x4,%ymm12,%ymm13
    259f:	c5 ed 60 dd          	vpunpcklbw %ymm5,%ymm2,%ymm3
    25a3:	c5 ed 68 f5          	vpunpckhbw %ymm5,%ymm2,%ymm6
    25a7:	c4 c3 0d 46 c7 20    	vperm2i128 $0x20,%ymm15,%ymm14,%ymm0
    25ad:	c4 c3 0d 46 d7 31    	vperm2i128 $0x31,%ymm15,%ymm14,%ymm2
    25b3:	c5 3d db 9c 24 f0 00 	vpand  0xf0(%rsp),%ymm8,%ymm11
    25ba:	00 00 
    25bc:	c4 41 3d db f5       	vpand  %ymm13,%ymm8,%ymm14
    25c1:	c5 d5 71 d1 04       	vpsrlw $0x4,%ymm1,%ymm5
    25c6:	c4 e3 65 46 fe 20    	vperm2i128 $0x20,%ymm6,%ymm3,%ymm7
    25cc:	c5 7e 6f ac 24 30 01 	vmovdqu 0x130(%rsp),%ymm13
    25d3:	00 00 
    25d5:	c5 bd db a4 24 d0 00 	vpand  0xd0(%rsp),%ymm8,%ymm4
    25dc:	00 00 
    25de:	c4 41 25 60 fe       	vpunpcklbw %ymm14,%ymm11,%ymm15
    25e3:	c4 63 65 46 ce 31    	vperm2i128 $0x31,%ymm6,%ymm3,%ymm9
    25e9:	c5 fe 6f 8c 24 10 01 	vmovdqu 0x110(%rsp),%ymm1
    25f0:	00 00 
    25f2:	c4 c1 7e 7f 87 28 43 	vmovdqu %ymm0,0x24328(%r15)
    25f9:	02 00 
    25fb:	c5 bd db f5          	vpand  %ymm5,%ymm8,%ymm6
    25ff:	c4 c1 25 68 c6       	vpunpckhbw %ymm14,%ymm11,%ymm0
    2604:	c5 bd db ac 24 10 01 	vpand  0x110(%rsp),%ymm8,%ymm5
    260b:	00 00 
    260d:	c4 c1 0d 71 d5 04    	vpsrlw $0x4,%ymm13,%ymm14
    2613:	c5 dd 60 de          	vpunpcklbw %ymm6,%ymm4,%ymm3
    2617:	c5 3d db a4 24 30 01 	vpand  0x130(%rsp),%ymm8,%ymm12
    261e:	00 00 
    2620:	c4 c1 7e 7f bf e8 42 	vmovdqu %ymm7,0x242e8(%r15)
    2627:	02 00 
    2629:	c4 c1 7e 7f 97 48 43 	vmovdqu %ymm2,0x24348(%r15)
    2630:	02 00 
    2632:	c5 dd 68 fe          	vpunpckhbw %ymm6,%ymm4,%ymm7
    2636:	c4 e3 05 46 d0 20    	vperm2i128 $0x20,%ymm0,%ymm15,%ymm2
    263c:	c4 e3 05 46 e0 31    	vperm2i128 $0x31,%ymm0,%ymm15,%ymm4
    2642:	c5 cd 71 d1 04       	vpsrlw $0x4,%ymm1,%ymm6
    2647:	c4 41 3d db fe       	vpand  %ymm14,%ymm8,%ymm15
    264c:	c5 fe 6f 8c 24 50 01 	vmovdqu 0x150(%rsp),%ymm1
    2653:	00 00 
    2655:	c5 7e 6f b4 24 70 01 	vmovdqu 0x170(%rsp),%ymm14
    265c:	00 00 
    265e:	c4 63 65 46 d7 31    	vperm2i128 $0x31,%ymm7,%ymm3,%ymm10
    2664:	c4 c1 1d 60 c7       	vpunpcklbw %ymm15,%ymm12,%ymm0
    2669:	c4 41 7e 7f 8f 08 43 	vmovdqu %ymm9,0x24308(%r15)
    2670:	02 00 
    2672:	c4 63 65 46 cf 20    	vperm2i128 $0x20,%ymm7,%ymm3,%ymm9
    2678:	c5 3d db ac 24 70 01 	vpand  0x170(%rsp),%ymm8,%ymm13
    267f:	00 00 
    2681:	c5 bd db fe          	vpand  %ymm6,%ymm8,%ymm7
    2685:	c4 41 7e 7f 8f 68 43 	vmovdqu %ymm9,0x24368(%r15)
    268c:	02 00 
    268e:	c5 d5 60 df          	vpunpcklbw %ymm7,%ymm5,%ymm3
    2692:	c5 cd 71 d1 04       	vpsrlw $0x4,%ymm1,%ymm6
    2697:	c5 55 68 cf          	vpunpckhbw %ymm7,%ymm5,%ymm9
    269b:	c4 c1 7e 7f a7 c8 43 	vmovdqu %ymm4,0x243c8(%r15)
    26a2:	02 00 
    26a4:	c5 bd db bc 24 50 01 	vpand  0x150(%rsp),%ymm8,%ymm7
    26ab:	00 00 
    26ad:	c4 c1 1d 68 e7       	vpunpckhbw %ymm15,%ymm12,%ymm4
    26b2:	c4 43 65 46 d9 31    	vperm2i128 $0x31,%ymm9,%ymm3,%ymm11
    26b8:	c4 41 7e 7f 97 88 43 	vmovdqu %ymm10,0x24388(%r15)
    26bf:	02 00 
    26c1:	c4 c1 05 71 d6 04    	vpsrlw $0x4,%ymm14,%ymm15
    26c7:	c4 43 65 46 d1 20    	vperm2i128 $0x20,%ymm9,%ymm3,%ymm10
    26cd:	c4 e3 7d 46 ec 31    	vperm2i128 $0x31,%ymm4,%ymm0,%ymm5
    26d3:	c4 c1 7e 7f 97 a8 43 	vmovdqu %ymm2,0x243a8(%r15)
    26da:	02 00 
    26dc:	c5 3d db ce          	vpand  %ymm6,%ymm8,%ymm9
    26e0:	c4 e3 7d 46 d4 20    	vperm2i128 $0x20,%ymm4,%ymm0,%ymm2
    26e6:	c4 c1 3d db c7       	vpand  %ymm15,%ymm8,%ymm0
    26eb:	c4 41 7e 7f 97 e8 43 	vmovdqu %ymm10,0x243e8(%r15)
    26f2:	02 00 
    26f4:	c4 c1 45 60 d9       	vpunpcklbw %ymm9,%ymm7,%ymm3
    26f9:	c4 41 45 68 d1       	vpunpckhbw %ymm9,%ymm7,%ymm10
    26fe:	c5 95 60 e0          	vpunpcklbw %ymm0,%ymm13,%ymm4
    2702:	c4 c1 7e 7f af 48 44 	vmovdqu %ymm5,0x24448(%r15)
    2709:	02 00 
    270b:	c5 95 68 e8          	vpunpckhbw %ymm0,%ymm13,%ymm5
    270f:	c4 43 65 46 e2 31    	vperm2i128 $0x31,%ymm10,%ymm3,%ymm12
    2715:	c4 41 7e 7f 9f 08 44 	vmovdqu %ymm11,0x24408(%r15)
    271c:	02 00 
    271e:	c4 43 65 46 da 20    	vperm2i128 $0x20,%ymm10,%ymm3,%ymm11
    2724:	c4 e3 5d 46 fd 31    	vperm2i128 $0x31,%ymm5,%ymm4,%ymm7
    272a:	c5 79 6e e8          	vmovd  %eax,%xmm13
    272e:	c4 c1 7e 7f 97 28 44 	vmovdqu %ymm2,0x24428(%r15)
    2735:	02 00 
    2737:	c4 e3 5d 46 d5 20    	vperm2i128 $0x20,%ymm5,%ymm4,%ymm2
    273d:	c4 41 7e 7f 9f 68 44 	vmovdqu %ymm11,0x24468(%r15)
    2744:	02 00 
    2746:	c4 42 79 78 f5       	vpbroadcastb %xmm13,%xmm14
    274b:	c4 41 7e 7f a7 88 44 	vmovdqu %ymm12,0x24488(%r15)
    2752:	02 00 
    2754:	c4 c1 7e 7f 97 a8 44 	vmovdqu %ymm2,0x244a8(%r15)
    275b:	02 00 
    275d:	c4 c1 7e 7f bf c8 44 	vmovdqu %ymm7,0x244c8(%r15)
    2764:	02 00 
    2766:	c5 bd db 8c 24 90 01 	vpand  0x190(%rsp),%ymm8,%ymm1
    276d:	00 00 
    276f:	0f b6 8c 24 c0 01 00 	movzbl 0x1c0(%rsp),%ecx
    2776:	00 
    2777:	0f b6 84 24 c1 01 00 	movzbl 0x1c1(%rsp),%eax
    277e:	00 
    277f:	c5 fe 6f b4 24 90 01 	vmovdqu 0x190(%rsp),%ymm6
    2786:	00 00 
    2788:	c5 f9 6f 84 24 b0 01 	vmovdqa 0x1b0(%rsp),%xmm0
    278f:	00 00 
    2791:	89 ca                	mov    %ecx,%edx
    2793:	c0 e9 04             	shr    $0x4,%cl
    2796:	c5 09 db bc 24 b0 01 	vpand  0x1b0(%rsp),%xmm14,%xmm15
    279d:	00 00 
    279f:	41 88 8f 49 45 02 00 	mov    %cl,0x24549(%r15)
    27a6:	89 c1                	mov    %eax,%ecx
    27a8:	c0 e8 04             	shr    $0x4,%al
    27ab:	83 e2 0f             	and    $0xf,%edx
    27ae:	83 e1 0f             	and    $0xf,%ecx
    27b1:	41 88 87 4b 45 02 00 	mov    %al,0x2454b(%r15)
    27b8:	c5 b5 71 d6 04       	vpsrlw $0x4,%ymm6,%ymm9
    27bd:	0f b6 84 24 c2 01 00 	movzbl 0x1c2(%rsp),%eax
    27c4:	00 
    27c5:	41 88 8f 4a 45 02 00 	mov    %cl,0x2454a(%r15)
    27cc:	c4 41 3d db c1       	vpand  %ymm9,%ymm8,%ymm8
    27d1:	c5 d9 71 d0 04       	vpsrlw $0x4,%xmm0,%xmm4
    27d6:	0f b6 8c 24 c3 01 00 	movzbl 0x1c3(%rsp),%ecx
    27dd:	00 
    27de:	41 88 97 48 45 02 00 	mov    %dl,0x24548(%r15)
    27e5:	89 c2                	mov    %eax,%edx
    27e7:	c0 e8 04             	shr    $0x4,%al
    27ea:	c4 c1 75 60 d8       	vpunpcklbw %ymm8,%ymm1,%ymm3
    27ef:	41 88 87 4d 45 02 00 	mov    %al,0x2454d(%r15)
    27f6:	89 c8                	mov    %ecx,%eax
    27f8:	c0 e9 04             	shr    $0x4,%cl
    27fb:	83 e2 0f             	and    $0xf,%edx
    27fe:	83 e0 0f             	and    $0xf,%eax
    2801:	41 88 8f 4f 45 02 00 	mov    %cl,0x2454f(%r15)
    2808:	c4 41 75 68 d0       	vpunpckhbw %ymm8,%ymm1,%ymm10
    280d:	c5 89 db ec          	vpand  %xmm4,%xmm14,%xmm5
    2811:	0f b6 8c 24 c4 01 00 	movzbl 0x1c4(%rsp),%ecx
    2818:	00 
    2819:	c4 43 65 46 da 20    	vperm2i128 $0x20,%ymm10,%ymm3,%ymm11
    281f:	c4 43 65 46 e2 31    	vperm2i128 $0x31,%ymm10,%ymm3,%ymm12
    2825:	c5 81 60 d5          	vpunpcklbw %xmm5,%xmm15,%xmm2
    2829:	41 88 87 4e 45 02 00 	mov    %al,0x2454e(%r15)
    2830:	c5 81 68 fd          	vpunpckhbw %xmm5,%xmm15,%xmm7
    2834:	0f b6 84 24 c5 01 00 	movzbl 0x1c5(%rsp),%eax
    283b:	00 
    283c:	41 88 97 4c 45 02 00 	mov    %dl,0x2454c(%r15)
    2843:	89 ca                	mov    %ecx,%edx
    2845:	c0 e9 04             	shr    $0x4,%cl
    2848:	41 88 8f 51 45 02 00 	mov    %cl,0x24551(%r15)
    284f:	89 c1                	mov    %eax,%ecx
    2851:	c0 e8 04             	shr    $0x4,%al
    2854:	83 e2 0f             	and    $0xf,%edx
    2857:	83 e1 0f             	and    $0xf,%ecx
    285a:	41 88 87 53 45 02 00 	mov    %al,0x24553(%r15)
    2861:	0f b6 84 24 c6 01 00 	movzbl 0x1c6(%rsp),%eax
    2868:	00 
    2869:	41 88 8f 52 45 02 00 	mov    %cl,0x24552(%r15)
    2870:	0f b6 8c 24 c7 01 00 	movzbl 0x1c7(%rsp),%ecx
    2877:	00 
    2878:	41 88 97 50 45 02 00 	mov    %dl,0x24550(%r15)
    287f:	89 c2                	mov    %eax,%edx
    2881:	c0 e8 04             	shr    $0x4,%al
    2884:	41 88 87 55 45 02 00 	mov    %al,0x24555(%r15)
    288b:	89 c8                	mov    %ecx,%eax
    288d:	83 e2 0f             	and    $0xf,%edx
    2890:	c0 e9 04             	shr    $0x4,%cl
    2893:	83 e0 0f             	and    $0xf,%eax
    2896:	41 88 97 54 45 02 00 	mov    %dl,0x24554(%r15)
    289d:	48 89 da             	mov    %rbx,%rdx
    28a0:	41 88 87 56 45 02 00 	mov    %al,0x24556(%r15)
    28a7:	41 88 8f 57 45 02 00 	mov    %cl,0x24557(%r15)
    28ae:	b9 10 00 00 00       	mov    $0x10,%ecx
    28b3:	c4 41 7e 7f 9f e8 44 	vmovdqu %ymm11,0x244e8(%r15)
    28ba:	02 00 
    28bc:	c4 41 7e 7f a7 08 45 	vmovdqu %ymm12,0x24508(%r15)
    28c3:	02 00 
    28c5:	c4 c1 7a 7f 97 28 45 	vmovdqu %xmm2,0x24528(%r15)
    28cc:	02 00 
    28ce:	c4 c1 7a 7f bf 38 45 	vmovdqu %xmm7,0x24538(%r15)
    28d5:	02 00 
    28d7:	c5 f8 77             	vzeroupper
    28da:	e8 c1 a4 00 00       	call   cda0 <AES_128_CTR_NI>
    28df:	c6 44 24 77 00       	movb   $0x0,0x77(%rsp)
    28e4:	49 8d bf c0 42 02 00 	lea    0x242c0(%r15),%rdi
    28eb:	41 b8 90 68 04 00    	mov    $0x46890,%r8d
    28f1:	4c 8d 4c 24 50       	lea    0x50(%rsp),%r9
    28f6:	44 89 c6             	mov    %r8d,%esi
    28f9:	45 8d 68 b2          	lea    -0x4e(%r8),%r13d
    28fd:	41 8d 80 64 ff ff ff 	lea    -0x9c(%r8),%eax
    2904:	48 81 ef c8 00 00 00 	sub    $0xc8,%rdi
    290b:	d1 fe                	sar    $1,%esi
    290d:	41 d1 fd             	sar    $1,%r13d
    2910:	4c 63 d6             	movslq %esi,%r10
    2913:	4d 63 f5             	movslq %r13d,%r14
    2916:	d1 f8                	sar    $1,%eax
    2918:	4d 01 fa             	add    %r15,%r10
    291b:	4d 01 fe             	add    %r15,%r14
    291e:	48 63 f0             	movslq %eax,%rsi
    2921:	4d 8b 5a 1f          	mov    0x1f(%r10),%r11
    2925:	c4 c1 7e 6f 0a       	vmovdqu (%r10),%ymm1
    292a:	4c 01 fe             	add    %r15,%rsi
    292d:	c4 c1 7e 7f 09       	vmovdqu %ymm1,(%r9)
    2932:	4d 89 59 1f          	mov    %r11,0x1f(%r9)
    2936:	c4 c1 7e 6f 31       	vmovdqu (%r9),%ymm6
    293b:	4d 8b 61 20          	mov    0x20(%r9),%r12
    293f:	c5 fe 7f b7 c8 00 00 	vmovdqu %ymm6,0xc8(%rdi)
    2946:	00 
    2947:	4c 89 a7 e8 00 00 00 	mov    %r12,0xe8(%rdi)
    294e:	49 8b 56 1f          	mov    0x1f(%r14),%rdx
    2952:	45 8d a0 16 ff ff ff 	lea    -0xea(%r8),%r12d
    2959:	c4 41 7e 6f 0e       	vmovdqu (%r14),%ymm9
    295e:	41 d1 fc             	sar    $1,%r12d
    2961:	4d 63 ec             	movslq %r12d,%r13
    2964:	c4 41 7e 7f 09       	vmovdqu %ymm9,(%r9)
    2969:	4d 01 fd             	add    %r15,%r13
    296c:	49 89 51 1f          	mov    %rdx,0x1f(%r9)
    2970:	c4 41 7e 6f 01       	vmovdqu (%r9),%ymm8
    2975:	49 8b 49 20          	mov    0x20(%r9),%rcx
    2979:	c5 7e 7f 87 a0 00 00 	vmovdqu %ymm8,0xa0(%rdi)
    2980:	00 
    2981:	48 89 8f c0 00 00 00 	mov    %rcx,0xc0(%rdi)
    2988:	4c 8b 56 1f          	mov    0x1f(%rsi),%r10
    298c:	41 8d 88 c8 fe ff ff 	lea    -0x138(%r8),%ecx
    2993:	41 81 e8 86 01 00 00 	sub    $0x186,%r8d
    299a:	c5 fe 6f 1e          	vmovdqu (%rsi),%ymm3
    299e:	d1 f9                	sar    $1,%ecx
    29a0:	48 63 c1             	movslq %ecx,%rax
    29a3:	c4 c1 7e 7f 19       	vmovdqu %ymm3,(%r9)
    29a8:	4c 01 f8             	add    %r15,%rax
    29ab:	4d 89 51 1f          	mov    %r10,0x1f(%r9)
    29af:	c4 41 7e 6f 11       	vmovdqu (%r9),%ymm10
    29b4:	4d 8b 59 20          	mov    0x20(%r9),%r11
    29b8:	c5 7e 7f 57 78       	vmovdqu %ymm10,0x78(%rdi)
    29bd:	4c 89 9f 98 00 00 00 	mov    %r11,0x98(%rdi)
    29c4:	c4 41 7e 6f 5d 00    	vmovdqu 0x0(%r13),%ymm11
    29ca:	4d 8b 75 1f          	mov    0x1f(%r13),%r14
    29ce:	c4 41 7e 7f 19       	vmovdqu %ymm11,(%r9)
    29d3:	4d 89 71 1f          	mov    %r14,0x1f(%r9)
    29d7:	c4 41 7e 6f 21       	vmovdqu (%r9),%ymm12
    29dc:	49 8b 51 20          	mov    0x20(%r9),%rdx
    29e0:	c5 7e 7f 67 50       	vmovdqu %ymm12,0x50(%rdi)
    29e5:	48 89 57 70          	mov    %rdx,0x70(%rdi)
    29e9:	c5 7e 6f 28          	vmovdqu (%rax),%ymm13
    29ed:	48 8b 70 1f          	mov    0x1f(%rax),%rsi
    29f1:	c4 41 7e 7f 29       	vmovdqu %ymm13,(%r9)
    29f6:	49 89 71 1f          	mov    %rsi,0x1f(%r9)
    29fa:	c4 41 7e 6f 31       	vmovdqu (%r9),%ymm14
    29ff:	4d 8b 51 20          	mov    0x20(%r9),%r10
    2a03:	c5 7e 7f 77 28       	vmovdqu %ymm14,0x28(%rdi)
    2a08:	4c 89 57 48          	mov    %r10,0x48(%rdi)
    2a0c:	41 83 f8 b2          	cmp    $0xffffffb2,%r8d
    2a10:	0f 85 e0 fe ff ff    	jne    28f6 <pqmayo_MAYO_1_opt_mayo_expand_sk+0x416>
    2a16:	49 8d bf f0 42 02 00 	lea    0x242f0(%r15),%rdi
    2a1d:	4c 89 fe             	mov    %r15,%rsi
    2a20:	45 31 f6             	xor    %r14d,%r14d
    2a23:	49 89 d9             	mov    %rbx,%r9
    2a26:	48 c7 44 24 48 00 00 	movq   $0x0,0x48(%rsp)
    2a2d:	00 00 
    2a2f:	4d 8d 87 e8 42 02 00 	lea    0x242e8(%r15),%r8
    2a36:	49 bd 11 11 11 11 11 	movabs $0x1111111111111111,%r13
    2a3d:	11 11 11 
    2a40:	48 89 7c 24 40       	mov    %rdi,0x40(%rsp)
    2a45:	4c 89 c0             	mov    %r8,%rax
    2a48:	31 ff                	xor    %edi,%edi
    2a4a:	48 8b 5c 24 48       	mov    0x48(%rsp),%rbx
    2a4f:	89 7c 24 30          	mov    %edi,0x30(%rsp)
    2a53:	44 8d 24 bf          	lea    (%rdi,%rdi,4),%r12d
    2a57:	45 89 f3             	mov    %r14d,%r11d
    2a5a:	48 89 74 24 10       	mov    %rsi,0x10(%rsp)
    2a5f:	45 89 e0             	mov    %r12d,%r8d
    2a62:	44 89 74 24 0c       	mov    %r14d,0xc(%rsp)
    2a67:	8d 0c 9b             	lea    (%rbx,%rbx,4),%ecx
    2a6a:	4c 89 f3             	mov    %r14,%rbx
    2a6d:	48 89 44 24 18       	mov    %rax,0x18(%rsp)
    2a72:	4c 89 c8             	mov    %r9,%rax
    2a75:	41 89 c9             	mov    %ecx,%r9d
    2a78:	0f 1f 84 00 00 00 00 	nopl   0x0(%rax,%rax,1)
    2a7f:	00 
    2a80:	45 39 f3             	cmp    %r14d,%r11d
    2a83:	0f 84 ec 03 00 00    	je     2e75 <pqmayo_MAYO_1_opt_mayo_expand_sk+0x995>
    2a89:	49 63 d1             	movslq %r9d,%rdx
    2a8c:	44 89 5c 24 3c       	mov    %r11d,0x3c(%rsp)
    2a91:	49 63 f0             	movslq %r8d,%rsi
    2a94:	4c 8b 54 24 18       	mov    0x18(%rsp),%r10
    2a99:	44 89 44 24 38       	mov    %r8d,0x38(%rsp)
    2a9e:	49 8d 0c d7          	lea    (%r15,%rdx,8),%rcx
    2aa2:	48 8b 54 24 10       	mov    0x10(%rsp),%rdx
    2aa7:	49 8d 3c f7          	lea    (%r15,%rsi,8),%rdi
    2aab:	44 89 4c 24 34       	mov    %r9d,0x34(%rsp)
    2ab0:	4c 89 74 24 28       	mov    %r14,0x28(%rsp)
    2ab5:	4c 89 7c 24 20       	mov    %r15,0x20(%rsp)
    2aba:	66 0f 1f 44 00 00    	nopw   0x0(%rax,%rax,1)
    2ac0:	4c 8b 74 24 48       	mov    0x48(%rsp),%r14
    2ac5:	4d 89 d7             	mov    %r10,%r15
    2ac8:	4d 29 f7             	sub    %r14,%r15
    2acb:	45 0f b6 1c df       	movzbl (%r15,%rbx,8),%r11d
    2ad0:	45 69 e3 01 02 04 08 	imul   $0x8040201,%r11d,%r12d
    2ad7:	45 89 e0             	mov    %r12d,%r8d
    2ada:	41 81 e0 f0 f0 f0 f0 	and    $0xf0f0f0f0,%r8d
    2ae1:	44 89 c6             	mov    %r8d,%esi
    2ae4:	41 c1 e8 03          	shr    $0x3,%r8d
    2ae8:	c1 ee 04             	shr    $0x4,%esi
    2aeb:	44 31 c6             	xor    %r8d,%esi
    2aee:	4c 8b 07             	mov    (%rdi),%r8
    2af1:	44 31 e6             	xor    %r12d,%esi
    2af4:	41 89 f3             	mov    %esi,%r11d
    2af7:	4d 89 c6             	mov    %r8,%r14
    2afa:	4d 89 c7             	mov    %r8,%r15
    2afd:	44 0f b6 e6          	movzbl %sil,%r12d
    2b01:	41 c1 eb 08          	shr    $0x8,%r11d
    2b05:	49 d1 ee             	shr    $1,%r14
    2b08:	4d 21 ef             	and    %r13,%r15
    2b0b:	41 89 f1             	mov    %esi,%r9d
    2b0e:	41 83 e3 0f          	and    $0xf,%r11d
    2b12:	4d 0f af fc          	imul   %r12,%r15
    2b16:	4d 21 ee             	and    %r13,%r14
    2b19:	41 c1 e9 10          	shr    $0x10,%r9d
    2b1d:	4d 0f af f3          	imul   %r11,%r14
    2b21:	4c 33 ba 68 e1 01 00 	xor    0x1e168(%rdx),%r15
    2b28:	41 83 e1 0f          	and    $0xf,%r9d
    2b2c:	c1 ee 18             	shr    $0x18,%esi
    2b2f:	83 e6 0f             	and    $0xf,%esi
    2b32:	4d 31 f7             	xor    %r14,%r15
    2b35:	4d 89 c6             	mov    %r8,%r14
    2b38:	49 c1 e8 03          	shr    $0x3,%r8
    2b3c:	49 c1 ee 02          	shr    $0x2,%r14
    2b40:	4d 21 e8             	and    %r13,%r8
    2b43:	4d 21 ee             	and    %r13,%r14
    2b46:	4c 0f af c6          	imul   %rsi,%r8
    2b4a:	4d 0f af f1          	imul   %r9,%r14
    2b4e:	4d 31 fe             	xor    %r15,%r14
    2b51:	4d 31 c6             	xor    %r8,%r14
    2b54:	4c 89 b2 68 e1 01 00 	mov    %r14,0x1e168(%rdx)
    2b5b:	4c 8b 47 08          	mov    0x8(%rdi),%r8
    2b5f:	4d 89 c7             	mov    %r8,%r15
    2b62:	4d 89 c6             	mov    %r8,%r14
    2b65:	4d 21 ef             	and    %r13,%r15
    2b68:	49 d1 ee             	shr    $1,%r14
    2b6b:	4d 0f af fc          	imul   %r12,%r15
    2b6f:	4c 33 ba 70 e1 01 00 	xor    0x1e170(%rdx),%r15
    2b76:	4d 21 ee             	and    %r13,%r14
    2b79:	4d 0f af f3          	imul   %r11,%r14
    2b7d:	4d 31 f7             	xor    %r14,%r15
    2b80:	4d 89 c6             	mov    %r8,%r14
    2b83:	49 c1 e8 03          	shr    $0x3,%r8
    2b87:	49 c1 ee 02          	shr    $0x2,%r14
    2b8b:	4d 21 e8             	and    %r13,%r8
    2b8e:	4d 21 ee             	and    %r13,%r14
    2b91:	4c 0f af c6          	imul   %rsi,%r8
    2b95:	4d 0f af f1          	imul   %r9,%r14
    2b99:	4d 31 fe             	xor    %r15,%r14
    2b9c:	4d 31 c6             	xor    %r8,%r14
    2b9f:	4c 89 b2 70 e1 01 00 	mov    %r14,0x1e170(%rdx)
    2ba6:	4c 8b 47 10          	mov    0x10(%rdi),%r8
    2baa:	4d 89 c6             	mov    %r8,%r14
    2bad:	4d 89 c7             	mov    %r8,%r15
    2bb0:	49 d1 ee             	shr    $1,%r14
    2bb3:	4d 21 ef             	and    %r13,%r15
    2bb6:	4d 21 ee             	and    %r13,%r14
    2bb9:	4d 0f af fc          	imul   %r12,%r15
    2bbd:	4c 33 ba 78 e1 01 00 	xor    0x1e178(%rdx),%r15
    2bc4:	4d 0f af f3          	imul   %r11,%r14
    2bc8:	4d 31 f7             	xor    %r14,%r15
    2bcb:	4d 89 c6             	mov    %r8,%r14
    2bce:	49 c1 e8 03          	shr    $0x3,%r8
    2bd2:	49 c1 ee 02          	shr    $0x2,%r14
    2bd6:	4d 21 e8             	and    %r13,%r8
    2bd9:	4d 21 ee             	and    %r13,%r14
    2bdc:	4c 0f af c6          	imul   %rsi,%r8
    2be0:	4d 0f af f1          	imul   %r9,%r14
    2be4:	4d 31 fe             	xor    %r15,%r14
    2be7:	4d 31 c6             	xor    %r8,%r14
    2bea:	4c 89 b2 78 e1 01 00 	mov    %r14,0x1e178(%rdx)
    2bf1:	4c 8b 47 18          	mov    0x18(%rdi),%r8
    2bf5:	4d 89 c6             	mov    %r8,%r14
    2bf8:	4d 89 c7             	mov    %r8,%r15
    2bfb:	49 d1 ee             	shr    $1,%r14
    2bfe:	4d 21 ef             	and    %r13,%r15
    2c01:	4d 21 ee             	and    %r13,%r14
    2c04:	4d 0f af fc          	imul   %r12,%r15
    2c08:	4c 33 ba 80 e1 01 00 	xor    0x1e180(%rdx),%r15
    2c0f:	4d 0f af f3          	imul   %r11,%r14
    2c13:	4d 31 f7             	xor    %r14,%r15
    2c16:	4d 89 c6             	mov    %r8,%r14
    2c19:	49 c1 e8 03          	shr    $0x3,%r8
    2c1d:	49 c1 ee 02          	shr    $0x2,%r14
    2c21:	4d 21 e8             	and    %r13,%r8
    2c24:	4d 21 ee             	and    %r13,%r14
    2c27:	4c 0f af c6          	imul   %rsi,%r8
    2c2b:	4d 0f af f1          	imul   %r9,%r14
    2c2f:	4d 31 fe             	xor    %r15,%r14
    2c32:	4d 31 c6             	xor    %r8,%r14
    2c35:	4c 89 b2 80 e1 01 00 	mov    %r14,0x1e180(%rdx)
    2c3c:	4c 8b 47 20          	mov    0x20(%rdi),%r8
    2c40:	4d 89 c7             	mov    %r8,%r15
    2c43:	4d 21 ef             	and    %r13,%r15
    2c46:	4d 0f af fc          	imul   %r12,%r15
    2c4a:	4d 89 c4             	mov    %r8,%r12
    2c4d:	4c 33 ba 88 e1 01 00 	xor    0x1e188(%rdx),%r15
    2c54:	49 d1 ec             	shr    $1,%r12
    2c57:	4d 21 ec             	and    %r13,%r12
    2c5a:	4d 0f af e3          	imul   %r11,%r12
    2c5e:	4d 89 c3             	mov    %r8,%r11
    2c61:	49 c1 e8 03          	shr    $0x3,%r8
    2c65:	49 c1 eb 02          	shr    $0x2,%r11
    2c69:	4d 21 e8             	and    %r13,%r8
    2c6c:	4d 21 eb             	and    %r13,%r11
    2c6f:	4c 0f af c6          	imul   %rsi,%r8
    2c73:	4d 0f af d9          	imul   %r9,%r11
    2c77:	4d 31 fc             	xor    %r15,%r12
    2c7a:	4d 31 e3             	xor    %r12,%r11
    2c7d:	4d 31 c3             	xor    %r8,%r11
    2c80:	4c 89 9a 88 e1 01 00 	mov    %r11,0x1e188(%rdx)
    2c87:	41 0f b6 32          	movzbl (%r10),%esi
    2c8b:	4c 8b 07             	mov    (%rdi),%r8
    2c8e:	44 69 f6 01 02 04 08 	imul   $0x8040201,%esi,%r14d
    2c95:	4d 89 c7             	mov    %r8,%r15
    2c98:	45 89 f1             	mov    %r14d,%r9d
    2c9b:	41 81 e1 f0 f0 f0 f0 	and    $0xf0f0f0f0,%r9d
    2ca2:	44 89 ce             	mov    %r9d,%esi
    2ca5:	41 c1 e9 03          	shr    $0x3,%r9d
    2ca9:	c1 ee 04             	shr    $0x4,%esi
    2cac:	44 31 ce             	xor    %r9d,%esi
    2caf:	44 31 f6             	xor    %r14d,%esi
    2cb2:	4d 89 c6             	mov    %r8,%r14
    2cb5:	41 89 f3             	mov    %esi,%r11d
    2cb8:	41 89 f1             	mov    %esi,%r9d
    2cbb:	44 0f b6 e6          	movzbl %sil,%r12d
    2cbf:	41 c1 eb 08          	shr    $0x8,%r11d
    2cc3:	41 83 e3 0f          	and    $0xf,%r11d
    2cc7:	41 c1 e9 10          	shr    $0x10,%r9d
    2ccb:	4d 21 ef             	and    %r13,%r15
    2cce:	49 d1 ee             	shr    $1,%r14
    2cd1:	4d 0f af fc          	imul   %r12,%r15
    2cd5:	41 83 e1 0f          	and    $0xf,%r9d
    2cd9:	c1 ee 18             	shr    $0x18,%esi
    2cdc:	4d 21 ee             	and    %r13,%r14
    2cdf:	4c 33 b9 68 e1 01 00 	xor    0x1e168(%rcx),%r15
    2ce6:	83 e6 0f             	and    $0xf,%esi
    2ce9:	4d 0f af f3          	imul   %r11,%r14
    2ced:	4d 31 f7             	xor    %r14,%r15
    2cf0:	4d 89 c6             	mov    %r8,%r14
    2cf3:	49 c1 e8 03          	shr    $0x3,%r8
    2cf7:	49 c1 ee 02          	shr    $0x2,%r14
    2cfb:	4d 21 e8             	and    %r13,%r8
    2cfe:	4d 21 ee             	and    %r13,%r14
    2d01:	4c 0f af c6          	imul   %rsi,%r8
    2d05:	4d 0f af f1          	imul   %r9,%r14
    2d09:	4d 31 fe             	xor    %r15,%r14
    2d0c:	4d 31 c6             	xor    %r8,%r14
    2d0f:	4c 89 b1 68 e1 01 00 	mov    %r14,0x1e168(%rcx)
    2d16:	4c 8b 47 08          	mov    0x8(%rdi),%r8
    2d1a:	4d 89 c6             	mov    %r8,%r14
    2d1d:	4d 89 c7             	mov    %r8,%r15
    2d20:	49 d1 ee             	shr    $1,%r14
    2d23:	4d 21 ef             	and    %r13,%r15
    2d26:	4d 21 ee             	and    %r13,%r14
    2d29:	4d 0f af fc          	imul   %r12,%r15
    2d2d:	4c 33 b9 70 e1 01 00 	xor    0x1e170(%rcx),%r15
    2d34:	4d 0f af f3          	imul   %r11,%r14
    2d38:	4d 31 f7             	xor    %r14,%r15
    2d3b:	4d 89 c6             	mov    %r8,%r14
    2d3e:	49 c1 e8 03          	shr    $0x3,%r8
    2d42:	49 c1 ee 02          	shr    $0x2,%r14
    2d46:	4d 21 e8             	and    %r13,%r8
    2d49:	4d 21 ee             	and    %r13,%r14
    2d4c:	4d 0f af f1          	imul   %r9,%r14
    2d50:	4d 31 fe             	xor    %r15,%r14
    2d53:	4c 0f af c6          	imul   %rsi,%r8
    2d57:	4d 31 c6             	xor    %r8,%r14
    2d5a:	4c 89 b1 70 e1 01 00 	mov    %r14,0x1e170(%rcx)
    2d61:	4c 8b 47 10          	mov    0x10(%rdi),%r8
    2d65:	4d 89 c6             	mov    %r8,%r14
    2d68:	4d 89 c7             	mov    %r8,%r15
    2d6b:	49 d1 ee             	shr    $1,%r14
    2d6e:	4d 21 ef             	and    %r13,%r15
    2d71:	4d 21 ee             	and    %r13,%r14
    2d74:	4d 0f af fc          	imul   %r12,%r15
    2d78:	4c 33 b9 78 e1 01 00 	xor    0x1e178(%rcx),%r15
    2d7f:	4d 0f af f3          	imul   %r11,%r14
    2d83:	4d 31 f7             	xor    %r14,%r15
    2d86:	4d 89 c6             	mov    %r8,%r14
    2d89:	49 c1 e8 03          	shr    $0x3,%r8
    2d8d:	49 c1 ee 02          	shr    $0x2,%r14
    2d91:	4d 21 e8             	and    %r13,%r8
    2d94:	4d 21 ee             	and    %r13,%r14
    2d97:	4c 0f af c6          	imul   %rsi,%r8
    2d9b:	4d 0f af f1          	imul   %r9,%r14
    2d9f:	4d 31 fe             	xor    %r15,%r14
    2da2:	4d 31 c6             	xor    %r8,%r14
    2da5:	4c 89 b1 78 e1 01 00 	mov    %r14,0x1e178(%rcx)
    2dac:	4c 8b 47 18          	mov    0x18(%rdi),%r8
    2db0:	4d 89 c6             	mov    %r8,%r14
    2db3:	4d 89 c7             	mov    %r8,%r15
    2db6:	49 d1 ee             	shr    $1,%r14
    2db9:	4d 21 ef             	and    %r13,%r15
    2dbc:	4d 21 ee             	and    %r13,%r14
    2dbf:	4d 0f af fc          	imul   %r12,%r15
    2dc3:	4c 33 b9 80 e1 01 00 	xor    0x1e180(%rcx),%r15
    2dca:	4d 0f af f3          	imul   %r11,%r14
    2dce:	4d 31 f7             	xor    %r14,%r15
    2dd1:	4d 89 c6             	mov    %r8,%r14
    2dd4:	49 c1 e8 03          	shr    $0x3,%r8
    2dd8:	49 c1 ee 02          	shr    $0x2,%r14
    2ddc:	4d 21 e8             	and    %r13,%r8
    2ddf:	4d 21 ee             	and    %r13,%r14
    2de2:	4c 0f af c6          	imul   %rsi,%r8
    2de6:	4d 0f af f1          	imul   %r9,%r14
    2dea:	4d 31 fe             	xor    %r15,%r14
    2ded:	4d 31 c6             	xor    %r8,%r14
    2df0:	4c 89 b1 80 e1 01 00 	mov    %r14,0x1e180(%rcx)
    2df7:	4c 8b 47 20          	mov    0x20(%rdi),%r8
    2dfb:	4d 89 c7             	mov    %r8,%r15
    2dfe:	4d 21 ef             	and    %r13,%r15
    2e01:	49 83 c2 01          	add    $0x1,%r10
    2e05:	48 83 c2 28          	add    $0x28,%rdx
    2e09:	48 83 c1 28          	add    $0x28,%rcx
    2e0d:	4d 0f af fc          	imul   %r12,%r15
    2e11:	4d 89 c4             	mov    %r8,%r12
    2e14:	4c 33 b9 60 e1 01 00 	xor    0x1e160(%rcx),%r15
    2e1b:	49 d1 ec             	shr    $1,%r12
    2e1e:	4d 21 ec             	and    %r13,%r12
    2e21:	4d 0f af e3          	imul   %r11,%r12
    2e25:	4d 89 c3             	mov    %r8,%r11
    2e28:	49 c1 e8 03          	shr    $0x3,%r8
    2e2c:	49 c1 eb 02          	shr    $0x2,%r11
    2e30:	4d 21 e8             	and    %r13,%r8
    2e33:	4d 21 eb             	and    %r13,%r11
    2e36:	4c 0f af c6          	imul   %rsi,%r8
    2e3a:	4d 0f af d9          	imul   %r9,%r11
    2e3e:	4d 31 fc             	xor    %r15,%r12
    2e41:	4d 31 e3             	xor    %r12,%r11
    2e44:	4d 31 c3             	xor    %r8,%r11
    2e47:	4c 89 99 60 e1 01 00 	mov    %r11,0x1e160(%rcx)
    2e4e:	48 8b 74 24 40       	mov    0x40(%rsp),%rsi
    2e53:	49 39 f2             	cmp    %rsi,%r10
    2e56:	0f 85 64 fc ff ff    	jne    2ac0 <pqmayo_MAYO_1_opt_mayo_expand_sk+0x5e0>
    2e5c:	44 8b 5c 24 3c       	mov    0x3c(%rsp),%r11d
    2e61:	44 8b 44 24 38       	mov    0x38(%rsp),%r8d
    2e66:	44 8b 4c 24 34       	mov    0x34(%rsp),%r9d
    2e6b:	4c 8b 74 24 28       	mov    0x28(%rsp),%r14
    2e70:	4c 8b 7c 24 20       	mov    0x20(%rsp),%r15
    2e75:	41 83 c3 01          	add    $0x1,%r11d
    2e79:	48 83 c3 01          	add    $0x1,%rbx
    2e7d:	41 83 c0 05          	add    $0x5,%r8d
    2e81:	41 83 c1 28          	add    $0x28,%r9d
    2e85:	41 83 fb 4e          	cmp    $0x4e,%r11d
    2e89:	0f 85 f1 fb ff ff    	jne    2a80 <pqmayo_MAYO_1_opt_mayo_expand_sk+0x5a0>
    2e8f:	8b 5c 24 30          	mov    0x30(%rsp),%ebx
    2e93:	48 8b 74 24 10       	mov    0x10(%rsp),%rsi
    2e98:	49 89 c1             	mov    %rax,%r9
    2e9b:	49 83 c6 01          	add    $0x1,%r14
    2e9f:	48 83 44 24 48 08    	addq   $0x8,0x48(%rsp)
    2ea5:	8b 4c 24 0c          	mov    0xc(%rsp),%ecx
    2ea9:	48 8b 44 24 18       	mov    0x18(%rsp),%rax
    2eae:	4c 8b 54 24 48       	mov    0x48(%rsp),%r10
    2eb3:	8d 7b 4e             	lea    0x4e(%rbx),%edi
    2eb6:	48 81 c6 40 01 00 00 	add    $0x140,%rsi
    2ebd:	48 83 44 24 40 08    	addq   $0x8,0x40(%rsp)
    2ec3:	29 cf                	sub    %ecx,%edi
    2ec5:	48 83 c0 08          	add    $0x8,%rax
    2ec9:	49 81 fa 70 02 00 00 	cmp    $0x270,%r10
    2ed0:	0f 85 74 fb ff ff    	jne    2a4a <pqmayo_MAYO_1_opt_mayo_expand_sk+0x56a>
    2ed6:	4c 89 cf             	mov    %r9,%rdi
    2ed9:	be 48 01 00 00       	mov    $0x148,%esi
    2ede:	c5 f8 77             	vzeroupper
    2ee1:	e8 2a 29 01 00       	call   15810 <mayo_secure_clear>
    2ee6:	48 8b 84 24 d8 01 00 	mov    0x1d8(%rsp),%rax
    2eed:	00 
    2eee:	64 48 2b 04 25 28 00 	sub    %fs:0x28,%rax
    2ef5:	00 00 
    2ef7:	75 11                	jne    2f0a <pqmayo_MAYO_1_opt_mayo_expand_sk+0xa2a>
    2ef9:	48 8d 65 d8          	lea    -0x28(%rbp),%rsp
    2efd:	31 c0                	xor    %eax,%eax
    2eff:	5b                   	pop    %rbx
    2f00:	41 5c                	pop    %r12
    2f02:	41 5d                	pop    %r13
    2f04:	41 5e                	pop    %r14
    2f06:	41 5f                	pop    %r15
    2f08:	5d                   	pop    %rbp
    2f09:	c3                   	ret
    2f0a:	e8 41 e2 ff ff       	call   1150 <__stack_chk_fail@plt>
    2f0f:	90                   	nop

0000000000002f10 <pqmayo_MAYO_1_opt_mayo_sign_signature>:
    2f10:	f3 0f 1e fa          	endbr64
    2f14:	4c 8d 54 24 08       	lea    0x8(%rsp),%r10
    2f19:	48 83 e4 e0          	and    $0xffffffffffffffe0,%rsp
    2f1d:	41 ff 72 f8          	push   -0x8(%r10)
    2f21:	55                   	push   %rbp
    2f22:	48 89 e5             	mov    %rsp,%rbp
    2f25:	41 57                	push   %r15
    2f27:	41 56                	push   %r14
    2f29:	41 55                	push   %r13
    2f2b:	41 54                	push   %r12
    2f2d:	41 52                	push   %r10
    2f2f:	53                   	push   %rbx
    2f30:	4c 8d 9c 24 00 10 fd 	lea    -0x2f000(%rsp),%r11
    2f37:	ff 
    2f38:	48 81 ec 00 10 00 00 	sub    $0x1000,%rsp
    2f3f:	48 83 0c 24 00       	orq    $0x0,(%rsp)
    2f44:	4c 39 dc             	cmp    %r11,%rsp
    2f47:	75 ef                	jne    2f38 <pqmayo_MAYO_1_opt_mayo_sign_signature+0x28>
    2f49:	48 81 ec c0 05 00 00 	sub    $0x5c0,%rsp
    2f50:	48 89 bd 40 0a fd ff 	mov    %rdi,-0x2f5c0(%rbp)
    2f57:	49 89 fe             	mov    %rdi,%r14
    2f5a:	48 89 f3             	mov    %rsi,%rbx
    2f5d:	49 89 d7             	mov    %rdx,%r15
    2f60:	4c 89 85 f0 0c fd ff 	mov    %r8,-0x2f310(%rbp)
    2f67:	31 f6                	xor    %esi,%esi
    2f69:	49 89 cd             	mov    %rcx,%r13
    2f6c:	4d 89 cc             	mov    %r9,%r12
    2f6f:	48 8d bd 70 e6 ff ff 	lea    -0x1990(%rbp),%rdi
    2f76:	ba 50 19 00 00       	mov    $0x1950,%edx
    2f7b:	64 48 8b 04 25 28 00 	mov    %fs:0x28,%rax
    2f82:	00 00 
    2f84:	48 89 45 c8          	mov    %rax,-0x38(%rbp)
    2f88:	31 c0                	xor    %eax,%eax
    2f8a:	48 89 bd c0 0a fd ff 	mov    %rdi,-0x2f540(%rbp)
    2f91:	e8 ca e1 ff ff       	call   1160 <memset@plt>
    2f96:	c5 f9 ef c0          	vpxor  %xmm0,%xmm0,%xmm0
    2f9a:	4c 89 e6             	mov    %r12,%rsi
    2f9d:	4c 89 f7             	mov    %r14,%rdi
    2fa0:	48 8d 95 70 93 fd ff 	lea    -0x26c90(%rbp),%rdx
    2fa7:	c5 fd 7f 85 50 da ff 	vmovdqa %ymm0,-0x25b0(%rbp)
    2fae:	ff 
    2faf:	48 89 95 60 0a fd ff 	mov    %rdx,-0x2f5a0(%rbp)
    2fb6:	c5 fd 7f 85 30 da ff 	vmovdqa %ymm0,-0x25d0(%rbp)
    2fbd:	ff 
    2fbe:	c5 fe 7f 85 61 da ff 	vmovdqu %ymm0,-0x259f(%rbp)
    2fc5:	ff 
    2fc6:	c5 f8 77             	vzeroupper
    2fc9:	e8 12 f5 ff ff       	call   24e0 <pqmayo_MAYO_1_opt_mayo_expand_sk>
    2fce:	48 8b 8d f0 0c fd ff 	mov    -0x2f310(%rbp),%rcx
    2fd5:	85 c0                	test   %eax,%eax
    2fd7:	0f 84 28 01 00 00    	je     3105 <pqmayo_MAYO_1_opt_mayo_sign_signature+0x1f5>
    2fdd:	41 89 c6             	mov    %eax,%r14d
    2fe0:	48 8d bd 90 da ff ff 	lea    -0x2570(%rbp),%rdi
    2fe7:	4c 8d 9d 10 0d fd ff 	lea    -0x2f2f0(%rbp),%r11
    2fee:	48 8d b5 f0 da ff ff 	lea    -0x2510(%rbp),%rsi
    2ff5:	4c 8d 95 a0 dc ff ff 	lea    -0x2360(%rbp),%r10
    2ffc:	48 89 bd 98 0a fd ff 	mov    %rdi,-0x2f568(%rbp)
    3003:	48 8d 8d 58 d6 ff ff 	lea    -0x29a8(%rbp),%rcx
    300a:	4c 8d a5 30 da ff ff 	lea    -0x25d0(%rbp),%r12
    3011:	4c 89 9d f0 0a fd ff 	mov    %r11,-0x2f510(%rbp)
    3018:	48 8d 85 90 d9 ff ff 	lea    -0x2670(%rbp),%rax
    301f:	48 89 b5 90 0a fd ff 	mov    %rsi,-0x2f570(%rbp)
    3026:	4c 89 95 c8 0a fd ff 	mov    %r10,-0x2f538(%rbp)
    302d:	48 89 8d b0 0a fd ff 	mov    %rcx,-0x2f550(%rbp)
    3034:	4c 89 a5 a0 0a fd ff 	mov    %r12,-0x2f560(%rbp)
    303b:	48 89 85 30 0b fd ff 	mov    %rax,-0x2f4d0(%rbp)
    3042:	48 8b bd 90 0a fd ff 	mov    -0x2f570(%rbp),%rdi
    3049:	be ae 01 00 00       	mov    $0x1ae,%esi
    304e:	e8 bd 27 01 00       	call   15810 <mayo_secure_clear>
    3053:	48 8b bd c8 0a fd ff 	mov    -0x2f538(%rbp),%rdi
    305a:	be 0c 03 00 00       	mov    $0x30c,%esi
    305f:	e8 ac 27 01 00       	call   15810 <mayo_secure_clear>
    3064:	48 8b bd c0 0a fd ff 	mov    -0x2f540(%rbp),%rdi
    306b:	be 50 19 00 00       	mov    $0x1950,%esi
    3070:	e8 9b 27 01 00       	call   15810 <mayo_secure_clear>
    3075:	48 8b bd a0 0a fd ff 	mov    -0x2f560(%rbp),%rdi
    307c:	be 51 00 00 00       	mov    $0x51,%esi
    3081:	e8 8a 27 01 00       	call   15810 <mayo_secure_clear>
    3086:	48 8b bd b0 0a fd ff 	mov    -0x2f550(%rbp),%rdi
    308d:	be 70 02 00 00       	mov    $0x270,%esi
    3092:	e8 79 27 01 00       	call   15810 <mayo_secure_clear>
    3097:	48 8b bd 60 0a fd ff 	mov    -0x2f5a0(%rbp),%rdi
    309e:	be 58 45 02 00       	mov    $0x24558,%esi
    30a3:	e8 68 27 01 00       	call   15810 <mayo_secure_clear>
    30a8:	48 8b bd 30 0b fd ff 	mov    -0x2f4d0(%rbp),%rdi
    30af:	be 4e 00 00 00       	mov    $0x4e,%esi
    30b4:	e8 57 27 01 00       	call   15810 <mayo_secure_clear>
    30b9:	48 8b bd 98 0a fd ff 	mov    -0x2f568(%rbp),%rdi
    30c0:	be 51 00 00 00       	mov    $0x51,%esi
    30c5:	e8 46 27 01 00       	call   15810 <mayo_secure_clear>
    30ca:	48 8b bd f0 0a fd ff 	mov    -0x2f510(%rbp),%rdi
    30d1:	be 80 0c 00 00       	mov    $0xc80,%esi
    30d6:	e8 35 27 01 00       	call   15810 <mayo_secure_clear>
    30db:	48 8b 45 c8          	mov    -0x38(%rbp),%rax
    30df:	64 48 2b 04 25 28 00 	sub    %fs:0x28,%rax
    30e6:	00 00 
    30e8:	0f 85 f2 4d 00 00    	jne    7ee0 <pqmayo_MAYO_1_opt_mayo_sign_signature+0x4fd0>
    30ee:	48 8d 65 d0          	lea    -0x30(%rbp),%rsp
    30f2:	44 89 f0             	mov    %r14d,%eax
    30f5:	5b                   	pop    %rbx
    30f6:	5a                   	pop    %rdx
    30f7:	41 5c                	pop    %r12
    30f9:	41 5d                	pop    %r13
    30fb:	41 5e                	pop    %r14
    30fd:	41 5f                	pop    %r15
    30ff:	5d                   	pop    %rbp
    3100:	48 8d 62 f8          	lea    -0x8(%rdx),%rsp
    3104:	c3                   	ret
    3105:	48 8d bd 90 da ff ff 	lea    -0x2570(%rbp),%rdi
    310c:	4c 89 ea             	mov    %r13,%rdx
    310f:	be 20 00 00 00       	mov    $0x20,%esi
    3114:	48 89 bd 98 0a fd ff 	mov    %rdi,-0x2f568(%rbp)
    311b:	e8 40 03 01 00       	call   13460 <shake256>
    3120:	48 8d bd 10 0d fd ff 	lea    -0x2f2f0(%rbp),%rdi
    3127:	31 f6                	xor    %esi,%esi
    3129:	ba 80 0c 00 00       	mov    $0xc80,%edx
    312e:	48 89 bd f0 0a fd ff 	mov    %rdi,-0x2f510(%rbp)
    3135:	e8 26 e0 ff ff       	call   1160 <memset@plt>
    313a:	48 8d bd b0 da ff ff 	lea    -0x2550(%rbp),%rdi
    3141:	be 18 00 00 00       	mov    $0x18,%esi
    3146:	e8 d5 99 00 00       	call   cb20 <randombytes>
    314b:	85 c0                	test   %eax,%eax
    314d:	41 89 c6             	mov    %eax,%r14d
    3150:	74 51                	je     31a3 <pqmayo_MAYO_1_opt_mayo_sign_signature+0x293>
    3152:	4c 8d b5 f0 da ff ff 	lea    -0x2510(%rbp),%r14
    3159:	4c 8d bd a0 dc ff ff 	lea    -0x2360(%rbp),%r15
    3160:	48 8d 9d 58 d6 ff ff 	lea    -0x29a8(%rbp),%rbx
    3167:	4c 8d 8d 30 da ff ff 	lea    -0x25d0(%rbp),%r9
    316e:	4c 89 b5 90 0a fd ff 	mov    %r14,-0x2f570(%rbp)
    3175:	4c 89 bd c8 0a fd ff 	mov    %r15,-0x2f538(%rbp)
    317c:	48 89 9d b0 0a fd ff 	mov    %rbx,-0x2f550(%rbp)
    3183:	4c 89 8d a0 0a fd ff 	mov    %r9,-0x2f560(%rbp)
    318a:	4c 8d ad 90 d9 ff ff 	lea    -0x2670(%rbp),%r13
    3191:	41 be 01 00 00 00    	mov    $0x1,%r14d
    3197:	4c 89 ad 30 0b fd ff 	mov    %r13,-0x2f4d0(%rbp)
    319e:	e9 9f fe ff ff       	jmp    3042 <pqmayo_MAYO_1_opt_mayo_sign_signature+0x132>
    31a3:	c4 c1 7a 6f 3c 24    	vmovdqu (%r12),%xmm7
    31a9:	4c 8b ad 98 0a fd ff 	mov    -0x2f568(%rbp),%r13
    31b0:	48 8d bd d0 d8 ff ff 	lea    -0x2730(%rbp),%rdi
    31b7:	b9 50 00 00 00       	mov    $0x50,%ecx
    31bc:	49 8b 44 24 10       	mov    0x10(%r12),%rax
    31c1:	be 18 00 00 00       	mov    $0x18,%esi
    31c6:	4c 89 ea             	mov    %r13,%rdx
    31c9:	c5 fa 7f bd c8 da ff 	vmovdqu %xmm7,-0x2538(%rbp)
    31d0:	ff 
    31d1:	48 89 85 d8 da ff ff 	mov    %rax,-0x2528(%rbp)
    31d8:	e8 83 02 01 00       	call   13460 <shake256>
    31dd:	48 8b 8d e0 d8 ff ff 	mov    -0x2720(%rbp),%rcx
    31e4:	4c 89 ea             	mov    %r13,%rdx
    31e7:	c5 f9 6f 8d d0 d8 ff 	vmovdqa -0x2730(%rbp),%xmm1
    31ee:	ff 
    31ef:	48 8d bd f0 d8 ff ff 	lea    -0x2710(%rbp),%rdi
    31f6:	be 27 00 00 00       	mov    $0x27,%esi
    31fb:	48 89 8d c0 da ff ff 	mov    %rcx,-0x2540(%rbp)
    3202:	b9 38 00 00 00       	mov    $0x38,%ecx
    3207:	c5 f9 7f 8d b0 da ff 	vmovdqa %xmm1,-0x2550(%rbp)
    320e:	ff 
    320f:	e8 4c 02 01 00       	call   13460 <shake256>
    3214:	44 0f b6 95 13 d9 ff 	movzbl -0x26ed(%rbp),%r10d
    321b:	ff 
    321c:	44 0f b6 85 12 d9 ff 	movzbl -0x26ee(%rbp),%r8d
    3223:	ff 
    3224:	be 0f 00 00 00       	mov    $0xf,%esi
    3229:	c5 f9 6e ee          	vmovd  %esi,%xmm5
    322d:	0f b6 b5 11 d9 ff ff 	movzbl -0x26ef(%rbp),%esi
    3234:	0f b6 95 10 d9 ff ff 	movzbl -0x26f0(%rbp),%edx
    323b:	c7 85 ac 0a fd ff 00 	movl   $0x0,-0x2f554(%rbp)
    3242:	00 00 00 
    3245:	45 89 d3             	mov    %r10d,%r11d
    3248:	45 89 c1             	mov    %r8d,%r9d
    324b:	41 83 e2 0f          	and    $0xf,%r10d
    324f:	41 83 e0 0f          	and    $0xf,%r8d
    3253:	41 c0 eb 04          	shr    $0x4,%r11b
    3257:	41 c0 e9 04          	shr    $0x4,%r9b
    325b:	89 f7                	mov    %esi,%edi
    325d:	89 d1                	mov    %edx,%ecx
    325f:	45 0f b6 e3          	movzbl %r11b,%r12d
    3263:	41 0f b6 c1          	movzbl %r9b,%eax
    3267:	40 c0 ef 04          	shr    $0x4,%dil
    326b:	83 e6 0f             	and    $0xf,%esi
    326e:	49 c1 e4 08          	shl    $0x8,%r12
    3272:	44 0f b6 ef          	movzbl %dil,%r13d
    3276:	c0 e9 04             	shr    $0x4,%cl
    3279:	83 e2 0f             	and    $0xf,%edx
    327c:	4d 09 d4             	or     %r10,%r12
    327f:	c5 fd 6f a5 f0 d8 ff 	vmovdqa -0x2710(%rbp),%ymm4
    3286:	ff 
    3287:	c4 e2 7d 78 d5       	vpbroadcastb %xmm5,%ymm2
    328c:	c5 ed db 9d f0 d8 ff 	vpand  -0x2710(%rbp),%ymm2,%ymm3
    3293:	ff 
    3294:	49 c1 e4 08          	shl    $0x8,%r12
    3298:	4c 8d 8d f0 da ff ff 	lea    -0x2510(%rbp),%r9
    329f:	4c 8d 9d a0 dc ff ff 	lea    -0x2360(%rbp),%r11
    32a6:	c5 fd 7f 95 d0 0a fd 	vmovdqa %ymm2,-0x2f530(%rbp)
    32ad:	ff 
    32ae:	49 09 c4             	or     %rax,%r12
    32b1:	c5 cd 71 d4 04       	vpsrlw $0x4,%ymm4,%ymm6
    32b6:	4c 89 8d 90 0a fd ff 	mov    %r9,-0x2f570(%rbp)
    32bd:	4c 8d 8d f0 19 fd ff 	lea    -0x2e610(%rbp),%r9
    32c4:	49 c1 e4 08          	shl    $0x8,%r12
    32c8:	c5 4d db c2          	vpand  %ymm2,%ymm6,%ymm8
    32cc:	4c 89 9d c8 0a fd ff 	mov    %r11,-0x2f538(%rbp)
    32d3:	4c 8d 9d f0 2f fd ff 	lea    -0x2d010(%rbp),%r11
    32da:	4d 09 c4             	or     %r8,%r12
    32dd:	c4 41 65 60 c8       	vpunpcklbw %ymm8,%ymm3,%ymm9
    32e2:	c4 41 65 68 d0       	vpunpckhbw %ymm8,%ymm3,%ymm10
    32e7:	4c 89 8d 38 0a fd ff 	mov    %r9,-0x2f5c8(%rbp)
    32ee:	49 c1 e4 08          	shl    $0x8,%r12
    32f2:	c4 43 35 46 da 20    	vperm2i128 $0x20,%ymm10,%ymm9,%ymm11
    32f8:	c4 43 35 46 e2 31    	vperm2i128 $0x31,%ymm10,%ymm9,%ymm12
    32fe:	4c 89 9d 28 0a fd ff 	mov    %r11,-0x2f5d8(%rbp)
    3305:	4d 09 ec             	or     %r13,%r12
    3308:	4c 8d ad 90 19 fd ff 	lea    -0x2e670(%rbp),%r13
    330f:	c5 7d 7f 9d 30 d9 ff 	vmovdqa %ymm11,-0x26d0(%rbp)
    3316:	ff 
    3317:	49 c1 e4 08          	shl    $0x8,%r12
    331b:	4c 89 ad 88 0b fd ff 	mov    %r13,-0x2f478(%rbp)
    3322:	4c 8d ad 10 e3 ff ff 	lea    -0x1cf0(%rbp),%r13
    3329:	49 09 f4             	or     %rsi,%r12
    332c:	0f b6 f1             	movzbl %cl,%esi
    332f:	0f b6 8d 15 d9 ff ff 	movzbl -0x26eb(%rbp),%ecx
    3336:	4c 89 ad 80 0a fd ff 	mov    %r13,-0x2f580(%rbp)
    333d:	49 c1 e4 08          	shl    $0x8,%r12
    3341:	c5 7d 7f a5 50 d9 ff 	vmovdqa %ymm12,-0x26b0(%rbp)
    3348:	ff 
    3349:	49 09 f4             	or     %rsi,%r12
    334c:	89 c8                	mov    %ecx,%eax
    334e:	48 8d b5 d8 74 ff ff 	lea    -0x8b28(%rbp),%rsi
    3355:	83 e1 0f             	and    $0xf,%ecx
    3358:	49 c1 e4 08          	shl    $0x8,%r12
    335c:	c0 e8 04             	shr    $0x4,%al
    335f:	48 89 b5 58 0a fd ff 	mov    %rsi,-0x2f5a8(%rbp)
    3366:	48 8d b5 30 da ff ff 	lea    -0x25d0(%rbp),%rsi
    336d:	49 09 d4             	or     %rdx,%r12
    3370:	0f b6 95 14 d9 ff ff 	movzbl -0x26ec(%rbp),%edx
    3377:	44 0f b6 c0          	movzbl %al,%r8d
    337b:	48 8d 85 10 f6 ff ff 	lea    -0x9f0(%rbp),%rax
    3382:	41 c1 e0 08          	shl    $0x8,%r8d
    3386:	4c 89 a5 70 d9 ff ff 	mov    %r12,-0x2690(%rbp)
    338d:	4c 8d a5 ac df ff ff 	lea    -0x2054(%rbp),%r12
    3394:	89 d7                	mov    %edx,%edi
    3396:	41 09 c8             	or     %ecx,%r8d
    3399:	0f b6 8d 16 d9 ff ff 	movzbl -0x26ea(%rbp),%ecx
    33a0:	83 e2 0f             	and    $0xf,%edx
    33a3:	40 c0 ef 04          	shr    $0x4,%dil
    33a7:	41 c1 e0 08          	shl    $0x8,%r8d
    33ab:	4c 89 a5 88 0a fd ff 	mov    %r12,-0x2f578(%rbp)
    33b2:	4c 8d a5 c0 e6 ff ff 	lea    -0x1940(%rbp),%r12
    33b9:	44 0f b6 d7          	movzbl %dil,%r10d
    33bd:	48 8d bd 58 d6 ff ff 	lea    -0x29a8(%rbp),%rdi
    33c4:	48 89 85 70 0a fd ff 	mov    %rax,-0x2f590(%rbp)
    33cb:	45 09 d0             	or     %r10d,%r8d
    33ce:	4c 8d 95 30 d9 ff ff 	lea    -0x26d0(%rbp),%r10
    33d5:	48 89 bd b0 0a fd ff 	mov    %rdi,-0x2f550(%rbp)
    33dc:	41 c1 e0 08          	shl    $0x8,%r8d
    33e0:	4c 89 95 20 0a fd ff 	mov    %r10,-0x2f5e0(%rbp)
    33e7:	41 09 d0             	or     %edx,%r8d
    33ea:	0f b6 d1             	movzbl %cl,%edx
    33ed:	c0 e9 04             	shr    $0x4,%cl
    33f0:	4c 89 a5 30 0a fd ff 	mov    %r12,-0x2f5d0(%rbp)
    33f7:	80 e2 0f             	and    $0xf,%dl
    33fa:	44 89 85 78 d9 ff ff 	mov    %r8d,-0x2688(%rbp)
    3401:	4c 8d 85 e0 d9 ff ff 	lea    -0x2620(%rbp),%r8
    3408:	88 ce                	mov    %cl,%dh
    340a:	48 8d 8d 30 0d fd ff 	lea    -0x2f2d0(%rbp),%rcx
    3411:	4c 89 85 68 0a fd ff 	mov    %r8,-0x2f598(%rbp)
    3418:	66 89 95 7c d9 ff ff 	mov    %dx,-0x2684(%rbp)
    341f:	48 8d 95 50 18 fd ff 	lea    -0x2e7b0(%rbp),%rdx
    3426:	48 89 8d 50 0a fd ff 	mov    %rcx,-0x2f5b0(%rbp)
    342d:	48 89 95 78 0a fd ff 	mov    %rdx,-0x2f588(%rbp)
    3434:	48 89 b5 a0 0a fd ff 	mov    %rsi,-0x2f560(%rbp)
    343b:	44 89 b5 a8 0a fd ff 	mov    %r14d,-0x2f558(%rbp)
    3442:	48 89 9d 18 0a fd ff 	mov    %rbx,-0x2f5e8(%rbp)
    3449:	4c 89 bd 10 0a fd ff 	mov    %r15,-0x2f5f0(%rbp)
    3450:	c5 f8 77             	vzeroupper
    3453:	4c 8b bd 90 0a fd ff 	mov    -0x2f570(%rbp),%r15
    345a:	b9 51 00 00 00       	mov    $0x51,%ecx
    345f:	be ae 01 00 00       	mov    $0x1ae,%esi
    3464:	0f b6 9d ac 0a fd ff 	movzbl -0x2f554(%rbp),%ebx
    346b:	48 8b 95 98 0a fd ff 	mov    -0x2f568(%rbp),%rdx
    3472:	4c 89 ff             	mov    %r15,%rdi
    3475:	88 9d e0 da ff ff    	mov    %bl,-0x2520(%rbp)
    347b:	4d 89 fe             	mov    %r15,%r14
    347e:	e8 dd ff 00 00       	call   13460 <shake256>
    3483:	4c 8b 95 c8 0a fd ff 	mov    -0x2f538(%rbp),%r10
    348a:	48 8b bd 88 0a fd ff 	mov    -0x2f578(%rbp),%rdi
    3491:	c5 7d 6f 35 c7 2c 01 	vmovdqa 0x12cc7(%rip),%ymm14        # 16160 <_IO_stdin_used+0x160>
    3498:	00 
    3499:	4c 89 95 48 0a fd ff 	mov    %r10,-0x2f5b8(%rbp)
    34a0:	45 0f b6 46 25       	movzbl 0x25(%r14),%r8d
    34a5:	41 0f b6 46 20       	movzbl 0x20(%r14),%eax
    34aa:	49 83 c2 4e          	add    $0x4e,%r10
    34ae:	49 83 c6 27          	add    $0x27,%r14
    34b2:	41 0f b6 5e fb       	movzbl -0x5(%r14),%ebx
    34b7:	45 0f b6 5e fd       	movzbl -0x3(%r14),%r11d
    34bc:	45 89 c4             	mov    %r8d,%r12d
    34bf:	89 c1                	mov    %eax,%ecx
    34c1:	c0 e8 04             	shr    $0x4,%al
    34c4:	c4 c1 7e 6f 46 d9    	vmovdqu -0x27(%r14),%ymm0
    34ca:	41 c0 ec 04          	shr    $0x4,%r12b
    34ce:	41 88 42 f3          	mov    %al,-0xd(%r10)
    34d2:	89 d8                	mov    %ebx,%eax
    34d4:	45 89 d9             	mov    %r11d,%r9d
    34d7:	45 0f b6 ec          	movzbl %r12b,%r13d
    34db:	83 e0 0f             	and    $0xf,%eax
    34de:	41 83 e0 0f          	and    $0xf,%r8d
    34e2:	41 0f b6 56 fa       	movzbl -0x6(%r14),%edx
    34e7:	41 c1 e5 08          	shl    $0x8,%r13d
    34eb:	83 e1 0f             	and    $0xf,%ecx
    34ee:	41 88 42 f6          	mov    %al,-0xa(%r10)
    34f2:	41 c0 e9 04          	shr    $0x4,%r9b
    34f6:	41 0f b6 46 ff       	movzbl -0x1(%r14),%eax
    34fb:	45 09 c5             	or     %r8d,%r13d
    34fe:	c0 eb 04             	shr    $0x4,%bl
    3501:	41 88 4a f2          	mov    %cl,-0xe(%r10)
    3505:	41 c1 e5 08          	shl    $0x8,%r13d
    3509:	41 0f b6 4e fc       	movzbl -0x4(%r14),%ecx
    350e:	c5 c5 71 d0 04       	vpsrlw $0x4,%ymm0,%ymm7
    3513:	89 d6                	mov    %edx,%esi
    3515:	45 0f b6 f9          	movzbl %r9b,%r15d
    3519:	c0 ea 04             	shr    $0x4,%dl
    351c:	41 88 5a f7          	mov    %bl,-0x9(%r10)
    3520:	0f b6 d8             	movzbl %al,%ebx
    3523:	45 09 fd             	or     %r15d,%r13d
    3526:	41 88 52 f5          	mov    %dl,-0xb(%r10)
    352a:	41 83 e3 0f          	and    $0xf,%r11d
    352e:	89 ca                	mov    %ecx,%edx
    3530:	41 c1 e5 08          	shl    $0x8,%r13d
    3534:	80 e3 0f             	and    $0xf,%bl
    3537:	c0 e8 04             	shr    $0x4,%al
    353a:	83 e6 0f             	and    $0xf,%esi
    353d:	c5 7d 6f ad d0 0a fd 	vmovdqa -0x2f530(%rbp),%ymm13
    3544:	ff 
    3545:	83 e2 0f             	and    $0xf,%edx
    3548:	c0 e9 04             	shr    $0x4,%cl
    354b:	88 c7                	mov    %al,%bh
    354d:	c4 41 15 db 7e d9    	vpand  -0x27(%r14),%ymm13,%ymm15
    3553:	45 09 dd             	or     %r11d,%r13d
    3556:	41 88 72 f4          	mov    %sil,-0xc(%r10)
    355a:	c4 c1 45 db cd       	vpand  %ymm13,%ymm7,%ymm1
    355f:	41 88 52 f8          	mov    %dl,-0x8(%r10)
    3563:	c5 85 60 e9          	vpunpcklbw %ymm1,%ymm15,%ymm5
    3567:	c5 85 68 d1          	vpunpckhbw %ymm1,%ymm15,%ymm2
    356b:	41 88 4a f9          	mov    %cl,-0x7(%r10)
    356f:	c4 e3 55 46 da 20    	vperm2i128 $0x20,%ymm2,%ymm5,%ymm3
    3575:	c4 e3 55 46 e2 31    	vperm2i128 $0x31,%ymm2,%ymm5,%ymm4
    357b:	45 89 6a fa          	mov    %r13d,-0x6(%r10)
    357f:	c4 c1 7e 7f 5a b2    	vmovdqu %ymm3,-0x4e(%r10)
    3585:	c4 c1 7e 7f 62 d2    	vmovdqu %ymm4,-0x2e(%r10)
    358b:	66 41 89 5a fe       	mov    %bx,-0x2(%r10)
    3590:	4c 39 d7             	cmp    %r10,%rdi
    3593:	0f 85 07 ff ff ff    	jne    34a0 <pqmayo_MAYO_1_opt_mayo_sign_signature+0x590>
    3599:	48 8b 8d f0 0a fd ff 	mov    -0x2f510(%rbp),%rcx
    35a0:	4c 8b 85 c8 0a fd ff 	mov    -0x2f538(%rbp),%r8
    35a7:	4c 8b 95 b0 0a fd ff 	mov    -0x2f550(%rbp),%r10
    35ae:	c5 fe 6f 71 20       	vmovdqu 0x20(%rcx),%ymm6
    35b3:	c5 7e 6f 41 40       	vmovdqu 0x40(%rcx),%ymm8
    35b8:	4d 89 c3             	mov    %r8,%r11
    35bb:	c5 7e 6f 49 60       	vmovdqu 0x60(%rcx),%ymm9
    35c0:	c5 7e 6f 91 80 00 00 	vmovdqu 0x80(%rcx),%ymm10
    35c7:	00 
    35c8:	c5 7e 6f 19          	vmovdqu (%rcx),%ymm11
    35cc:	c5 7e 6f a1 c0 00 00 	vmovdqu 0xc0(%rcx),%ymm12
    35d3:	00 
    35d4:	c5 fd 7f b5 90 0c fd 	vmovdqa %ymm6,-0x2f370(%rbp)
    35db:	ff 
    35dc:	c5 7e 6f a9 e0 00 00 	vmovdqu 0xe0(%rcx),%ymm13
    35e3:	00 
    35e4:	c5 7e 6f b9 00 01 00 	vmovdqu 0x100(%rcx),%ymm15
    35eb:	00 
    35ec:	c5 7d 7f 85 70 0c fd 	vmovdqa %ymm8,-0x2f390(%rbp)
    35f3:	ff 
    35f4:	c5 fe 6f 81 20 01 00 	vmovdqu 0x120(%rcx),%ymm0
    35fb:	00 
    35fc:	c5 fe 6f b9 a0 00 00 	vmovdqu 0xa0(%rcx),%ymm7
    3603:	00 
    3604:	c5 7d 7f 8d 50 0c fd 	vmovdqa %ymm9,-0x2f3b0(%rbp)
    360b:	ff 
    360c:	4c 8b b5 58 0a fd ff 	mov    -0x2f5a8(%rbp),%r14
    3613:	c5 7d 7f 95 30 0c fd 	vmovdqa %ymm10,-0x2f3d0(%rbp)
    361a:	ff 
    361b:	c5 7d 7f 9d b0 0c fd 	vmovdqa %ymm11,-0x2f350(%rbp)
    3622:	ff 
    3623:	c5 7d 7f a5 f0 0b fd 	vmovdqa %ymm12,-0x2f410(%rbp)
    362a:	ff 
    362b:	c5 7d 7f ad d0 0b fd 	vmovdqa %ymm13,-0x2f430(%rbp)
    3632:	ff 
    3633:	c5 7d 7f bd f0 0c fd 	vmovdqa %ymm15,-0x2f310(%rbp)
    363a:	ff 
    363b:	c5 fd 7f 85 d0 0c fd 	vmovdqa %ymm0,-0x2f330(%rbp)
    3642:	ff 
    3643:	c5 fd 7f bd 10 0c fd 	vmovdqa %ymm7,-0x2f3f0(%rbp)
    364a:	ff 
    364b:	0f 1f 44 00 00       	nopl   0x0(%rax,%rax,1)
    3650:	41 0f b6 3b          	movzbl (%r11),%edi
    3654:	c4 c1 7e 6f 66 20    	vmovdqu 0x20(%r14),%ymm4
    365a:	49 81 c6 40 01 00 00 	add    $0x140,%r14
    3661:	49 83 c3 01          	add    $0x1,%r11
    3665:	c4 41 7e 6f 9e 00 ff 	vmovdqu -0x100(%r14),%ymm11
    366c:	ff ff 
    366e:	c4 41 7e 6f 86 20 ff 	vmovdqu -0xe0(%r14),%ymm8
    3675:	ff ff 
    3677:	69 f7 01 02 04 08    	imul   $0x8040201,%edi,%esi
    367d:	c5 cd 73 d4 02       	vpsrlq $0x2,%ymm4,%ymm6
    3682:	c4 41 4d db ce       	vpand  %ymm14,%ymm6,%ymm9
    3687:	c4 c1 1d 73 d1 20    	vpsrlq $0x20,%ymm9,%ymm12
    368d:	41 89 f1             	mov    %esi,%r9d
    3690:	41 81 e1 f0 f0 f0 f0 	and    $0xf0f0f0f0,%r9d
    3697:	44 89 ca             	mov    %r9d,%edx
    369a:	41 c1 e9 03          	shr    $0x3,%r9d
    369e:	c1 ea 04             	shr    $0x4,%edx
    36a1:	44 31 ca             	xor    %r9d,%edx
    36a4:	31 f2                	xor    %esi,%edx
    36a6:	41 89 d7             	mov    %edx,%r15d
    36a9:	44 0f b6 e2          	movzbl %dl,%r12d
    36ad:	41 89 d5             	mov    %edx,%r13d
    36b0:	c1 ea 18             	shr    $0x18,%edx
    36b3:	41 c1 ef 10          	shr    $0x10,%r15d
    36b7:	83 e2 0f             	and    $0xf,%edx
    36ba:	41 c1 ed 08          	shr    $0x8,%r13d
    36be:	c4 c1 f9 6e ec       	vmovq  %r12,%xmm5
    36c3:	41 83 e7 0f          	and    $0xf,%r15d
    36c7:	c4 e1 f9 6e ca       	vmovq  %rdx,%xmm1
    36cc:	41 83 e5 0f          	and    $0xf,%r13d
    36d0:	c4 c1 f9 6e d7       	vmovq  %r15,%xmm2
    36d5:	c4 e2 7d 59 c1       	vpbroadcastq %xmm1,%ymm0
    36da:	c4 c1 f9 6e dd       	vmovq  %r13,%xmm3
    36df:	c4 e2 7d 59 ca       	vpbroadcastq %xmm2,%ymm1
    36e4:	c4 e2 7d 59 d3       	vpbroadcastq %xmm3,%ymm2
    36e9:	c4 e2 7d 59 dd       	vpbroadcastq %xmm5,%ymm3
    36ee:	c5 cd 73 d1 20       	vpsrlq $0x20,%ymm1,%ymm6
    36f3:	c5 1d f4 e9          	vpmuludq %ymm1,%ymm12,%ymm13
    36f7:	c4 41 4d f4 f9       	vpmuludq %ymm9,%ymm6,%ymm15
    36fc:	c5 35 f4 d1          	vpmuludq %ymm1,%ymm9,%ymm10
    3700:	c5 b5 73 d4 01       	vpsrlq $0x1,%ymm4,%ymm9
    3705:	c4 c1 15 d4 ff       	vpaddq %ymm15,%ymm13,%ymm7
    370a:	c4 41 35 db ee       	vpand  %ymm14,%ymm9,%ymm13
    370f:	c5 d5 73 f7 20       	vpsllq $0x20,%ymm7,%ymm5
    3714:	c4 c1 05 73 d5 20    	vpsrlq $0x20,%ymm13,%ymm15
    371a:	c5 c5 73 d2 20       	vpsrlq $0x20,%ymm2,%ymm7
    371f:	c5 05 f4 ca          	vpmuludq %ymm2,%ymm15,%ymm9
    3723:	c5 2d d4 e5          	vpaddq %ymm5,%ymm10,%ymm12
    3727:	c4 c1 45 f4 ed       	vpmuludq %ymm13,%ymm7,%ymm5
    372c:	c5 15 f4 d2          	vpmuludq %ymm2,%ymm13,%ymm10
    3730:	c5 35 d4 ed          	vpaddq %ymm5,%ymm9,%ymm13
    3734:	c5 d5 73 d3 20       	vpsrlq $0x20,%ymm3,%ymm5
    3739:	c4 c1 05 73 f5 20    	vpsllq $0x20,%ymm13,%ymm15
    373f:	c4 41 5d db ee       	vpand  %ymm14,%ymm4,%ymm13
    3744:	c4 c1 35 73 d5 20    	vpsrlq $0x20,%ymm13,%ymm9
    374a:	c5 dd 73 d4 03       	vpsrlq $0x3,%ymm4,%ymm4
    374f:	c4 41 2d d4 d7       	vpaddq %ymm15,%ymm10,%ymm10
    3754:	c4 41 1d ef e2       	vpxor  %ymm10,%ymm12,%ymm12
    3759:	c5 15 f4 fb          	vpmuludq %ymm3,%ymm13,%ymm15
    375d:	c5 35 f4 d3          	vpmuludq %ymm3,%ymm9,%ymm10
    3761:	c4 41 55 f4 ed       	vpmuludq %ymm13,%ymm5,%ymm13
    3766:	c4 41 2d d4 cd       	vpaddq %ymm13,%ymm10,%ymm9
    376b:	c4 c1 2d 73 f1 20    	vpsllq $0x20,%ymm9,%ymm10
    3771:	c4 41 5d db ce       	vpand  %ymm14,%ymm4,%ymm9
    3776:	c4 41 05 d4 fa       	vpaddq %ymm10,%ymm15,%ymm15
    377b:	c5 05 ef ad 90 0c fd 	vpxor  -0x2f370(%rbp),%ymm15,%ymm13
    3782:	ff 
    3783:	c5 dd 73 d0 20       	vpsrlq $0x20,%ymm0,%ymm4
    3788:	c4 c1 2d 73 d1 20    	vpsrlq $0x20,%ymm9,%ymm10
    378e:	c4 41 1d ef e5       	vpxor  %ymm13,%ymm12,%ymm12
    3793:	c5 2d f4 e8          	vpmuludq %ymm0,%ymm10,%ymm13
    3797:	c5 7d 7f a5 90 0c fd 	vmovdqa %ymm12,-0x2f370(%rbp)
    379e:	ff 
    379f:	c4 41 5d f4 e1       	vpmuludq %ymm9,%ymm4,%ymm12
    37a4:	c5 35 f4 f8          	vpmuludq %ymm0,%ymm9,%ymm15
    37a8:	c4 41 15 d4 cc       	vpaddq %ymm12,%ymm13,%ymm9
    37ad:	c4 c1 15 73 d3 02    	vpsrlq $0x2,%ymm11,%ymm13
    37b3:	c4 41 15 db e6       	vpand  %ymm14,%ymm13,%ymm12
    37b8:	c4 c1 2d 73 f1 20    	vpsllq $0x20,%ymm9,%ymm10
    37be:	c4 c1 35 73 d4 20    	vpsrlq $0x20,%ymm12,%ymm9
    37c4:	c4 41 4d f4 ec       	vpmuludq %ymm12,%ymm6,%ymm13
    37c9:	c4 41 05 d4 fa       	vpaddq %ymm10,%ymm15,%ymm15
    37ce:	c5 35 f4 d1          	vpmuludq %ymm1,%ymm9,%ymm10
    37d2:	c5 7d 7f bd b0 0b fd 	vmovdqa %ymm15,-0x2f450(%rbp)
    37d9:	ff 
    37da:	c5 1d f4 f9          	vpmuludq %ymm1,%ymm12,%ymm15
    37de:	c4 41 2d d4 e5       	vpaddq %ymm13,%ymm10,%ymm12
    37e3:	c4 c1 2d 73 d3 01    	vpsrlq $0x1,%ymm11,%ymm10
    37e9:	c4 41 2d db ee       	vpand  %ymm14,%ymm10,%ymm13
    37ee:	c4 c1 35 73 f4 20    	vpsllq $0x20,%ymm12,%ymm9
    37f4:	c4 41 05 d4 f9       	vpaddq %ymm9,%ymm15,%ymm15
    37f9:	c4 c1 35 73 d5 20    	vpsrlq $0x20,%ymm13,%ymm9
    37ff:	c5 15 f4 e2          	vpmuludq %ymm2,%ymm13,%ymm12
    3803:	c5 35 f4 d2          	vpmuludq %ymm2,%ymm9,%ymm10
    3807:	c4 41 45 f4 ed       	vpmuludq %ymm13,%ymm7,%ymm13
    380c:	c4 41 2d d4 cd       	vpaddq %ymm13,%ymm10,%ymm9
    3811:	c4 41 25 db ee       	vpand  %ymm14,%ymm11,%ymm13
    3816:	c4 c1 2d 73 f1 20    	vpsllq $0x20,%ymm9,%ymm10
    381c:	c4 c1 35 73 d5 20    	vpsrlq $0x20,%ymm13,%ymm9
    3822:	c4 41 1d d4 e2       	vpaddq %ymm10,%ymm12,%ymm12
    3827:	c4 c1 25 73 d3 03    	vpsrlq $0x3,%ymm11,%ymm11
    382d:	c4 41 05 ef d4       	vpxor  %ymm12,%ymm15,%ymm10
    3832:	c5 15 f4 fb          	vpmuludq %ymm3,%ymm13,%ymm15
    3836:	c5 35 f4 e3          	vpmuludq %ymm3,%ymm9,%ymm12
    383a:	c4 41 55 f4 ed       	vpmuludq %ymm13,%ymm5,%ymm13
    383f:	c4 41 1d d4 cd       	vpaddq %ymm13,%ymm12,%ymm9
    3844:	c4 c1 1d 73 f1 20    	vpsllq $0x20,%ymm9,%ymm12
    384a:	c4 41 05 d4 fc       	vpaddq %ymm12,%ymm15,%ymm15
    384f:	c5 05 ef ad 70 0c fd 	vpxor  -0x2f390(%rbp),%ymm15,%ymm13
    3856:	ff 
    3857:	c4 41 25 db fe       	vpand  %ymm14,%ymm11,%ymm15
    385c:	c4 c1 35 73 d7 20    	vpsrlq $0x20,%ymm15,%ymm9
    3862:	c4 41 5d f4 df       	vpmuludq %ymm15,%ymm4,%ymm11
    3867:	c4 41 2d ef d5       	vpxor  %ymm13,%ymm10,%ymm10
    386c:	c5 35 f4 e8          	vpmuludq %ymm0,%ymm9,%ymm13
    3870:	c5 05 f4 e0          	vpmuludq %ymm0,%ymm15,%ymm12
    3874:	c4 41 15 d4 fb       	vpaddq %ymm11,%ymm13,%ymm15
    3879:	c4 c1 15 73 d0 02    	vpsrlq $0x2,%ymm8,%ymm13
    387f:	c4 c1 35 73 f7 20    	vpsllq $0x20,%ymm15,%ymm9
    3885:	c4 41 15 db fe       	vpand  %ymm14,%ymm13,%ymm15
    388a:	c4 c1 25 73 d7 20    	vpsrlq $0x20,%ymm15,%ymm11
    3890:	c4 41 1d d4 e1       	vpaddq %ymm9,%ymm12,%ymm12
    3895:	c5 25 f4 e9          	vpmuludq %ymm1,%ymm11,%ymm13
    3899:	c4 41 4d f4 cf       	vpmuludq %ymm15,%ymm6,%ymm9
    389e:	c5 7d 7f a5 70 0c fd 	vmovdqa %ymm12,-0x2f390(%rbp)
    38a5:	ff 
    38a6:	c5 2d ef 95 70 0c fd 	vpxor  -0x2f390(%rbp),%ymm10,%ymm10
    38ad:	ff 
    38ae:	c5 05 f4 e1          	vpmuludq %ymm1,%ymm15,%ymm12
    38b2:	c5 7d 7f 95 70 0c fd 	vmovdqa %ymm10,-0x2f390(%rbp)
    38b9:	ff 
    38ba:	c5 7e 7f 51 40       	vmovdqu %ymm10,0x40(%rcx)
    38bf:	c4 41 15 d4 f9       	vpaddq %ymm9,%ymm13,%ymm15
    38c4:	c4 c1 25 73 f7 20    	vpsllq $0x20,%ymm15,%ymm11
    38ca:	c4 41 1d d4 eb       	vpaddq %ymm11,%ymm12,%ymm13
    38cf:	c4 c1 1d 73 d0 01    	vpsrlq $0x1,%ymm8,%ymm12
    38d5:	c4 41 1d db ce       	vpand  %ymm14,%ymm12,%ymm9
    38da:	c4 c1 25 73 d1 20    	vpsrlq $0x20,%ymm9,%ymm11
    38e0:	c5 35 f4 fa          	vpmuludq %ymm2,%ymm9,%ymm15
    38e4:	c5 25 f4 e2          	vpmuludq %ymm2,%ymm11,%ymm12
    38e8:	c4 41 45 f4 c9       	vpmuludq %ymm9,%ymm7,%ymm9
    38ed:	c4 41 1d d4 d9       	vpaddq %ymm9,%ymm12,%ymm11
    38f2:	c4 c1 1d 73 f3 20    	vpsllq $0x20,%ymm11,%ymm12
    38f8:	c4 41 3d db de       	vpand  %ymm14,%ymm8,%ymm11
    38fd:	c4 c1 35 73 d3 20    	vpsrlq $0x20,%ymm11,%ymm9
    3903:	c4 c1 3d 73 d0 03    	vpsrlq $0x3,%ymm8,%ymm8
    3909:	c4 41 05 d4 fc       	vpaddq %ymm12,%ymm15,%ymm15
    390e:	c4 41 15 ef e7       	vpxor  %ymm15,%ymm13,%ymm12
    3913:	c5 25 f4 eb          	vpmuludq %ymm3,%ymm11,%ymm13
    3917:	c5 35 f4 fb          	vpmuludq %ymm3,%ymm9,%ymm15
    391b:	c4 41 55 f4 db       	vpmuludq %ymm11,%ymm5,%ymm11
    3920:	c4 41 05 d4 cb       	vpaddq %ymm11,%ymm15,%ymm9
    3925:	c4 c1 05 73 f1 20    	vpsllq $0x20,%ymm9,%ymm15
    392b:	c4 41 15 d4 ef       	vpaddq %ymm15,%ymm13,%ymm13
    3930:	c5 15 ef 9d 50 0c fd 	vpxor  -0x2f3b0(%rbp),%ymm13,%ymm11
    3937:	ff 
    3938:	c4 41 3d db fe       	vpand  %ymm14,%ymm8,%ymm15
    393d:	c4 c1 35 73 d7 20    	vpsrlq $0x20,%ymm15,%ymm9
    3943:	c5 05 f4 e8          	vpmuludq %ymm0,%ymm15,%ymm13
    3947:	c4 41 1d ef e3       	vpxor  %ymm11,%ymm12,%ymm12
    394c:	c5 35 f4 d8          	vpmuludq %ymm0,%ymm9,%ymm11
    3950:	c5 7d 7f a5 50 0c fd 	vmovdqa %ymm12,-0x2f3b0(%rbp)
    3957:	ff 
    3958:	c4 41 5d f4 e7       	vpmuludq %ymm15,%ymm4,%ymm12
    395d:	c4 41 25 d4 c4       	vpaddq %ymm12,%ymm11,%ymm8
    3962:	c4 c1 05 73 f0 20    	vpsllq $0x20,%ymm8,%ymm15
    3968:	c4 41 15 d4 ef       	vpaddq %ymm15,%ymm13,%ymm13
    396d:	c4 41 7e 6f be 40 ff 	vmovdqu -0xc0(%r14),%ymm15
    3974:	ff ff 
    3976:	c5 7d 7f ad 90 0b fd 	vmovdqa %ymm13,-0x2f470(%rbp)
    397d:	ff 
    397e:	c4 c1 35 73 d7 02    	vpsrlq $0x2,%ymm15,%ymm9
    3984:	c4 41 35 db de       	vpand  %ymm14,%ymm9,%ymm11
    3989:	c4 c1 3d 73 d3 20    	vpsrlq $0x20,%ymm11,%ymm8
    398f:	c4 41 4d f4 cb       	vpmuludq %ymm11,%ymm6,%ymm9
    3994:	c5 3d f4 e9          	vpmuludq %ymm1,%ymm8,%ymm13
    3998:	c5 25 f4 e1          	vpmuludq %ymm1,%ymm11,%ymm12
    399c:	c4 41 15 d4 d9       	vpaddq %ymm9,%ymm13,%ymm11
    39a1:	c4 c1 15 73 d7 01    	vpsrlq $0x1,%ymm15,%ymm13
    39a7:	c4 41 0d db ff       	vpand  %ymm15,%ymm14,%ymm15
    39ac:	c4 c1 3d 73 f3 20    	vpsllq $0x20,%ymm11,%ymm8
    39b2:	c4 41 1d d4 e0       	vpaddq %ymm8,%ymm12,%ymm12
    39b7:	c4 41 15 db c6       	vpand  %ymm14,%ymm13,%ymm8
    39bc:	c4 c1 35 73 d0 20    	vpsrlq $0x20,%ymm8,%ymm9
    39c2:	c5 3d f4 da          	vpmuludq %ymm2,%ymm8,%ymm11
    39c6:	c5 35 f4 ea          	vpmuludq %ymm2,%ymm9,%ymm13
    39ca:	c4 41 45 f4 c0       	vpmuludq %ymm8,%ymm7,%ymm8
    39cf:	c4 41 15 d4 c8       	vpaddq %ymm8,%ymm13,%ymm9
    39d4:	c4 c1 15 73 f1 20    	vpsllq $0x20,%ymm9,%ymm13
    39da:	c4 41 25 d4 dd       	vpaddq %ymm13,%ymm11,%ymm11
    39df:	c5 05 f4 eb          	vpmuludq %ymm3,%ymm15,%ymm13
    39e3:	c4 41 1d ef cb       	vpxor  %ymm11,%ymm12,%ymm9
    39e8:	c4 c1 1d 73 d7 20    	vpsrlq $0x20,%ymm15,%ymm12
    39ee:	c5 1d f4 c3          	vpmuludq %ymm3,%ymm12,%ymm8
    39f2:	c4 41 55 f4 df       	vpmuludq %ymm15,%ymm5,%ymm11
    39f7:	c4 41 3d d4 fb       	vpaddq %ymm11,%ymm8,%ymm15
    39fc:	c4 41 7e 6f 9e 40 ff 	vmovdqu -0xc0(%r14),%ymm11
    3a03:	ff ff 
    3a05:	c4 c1 1d 73 f7 20    	vpsllq $0x20,%ymm15,%ymm12
    3a0b:	c4 41 15 d4 ec       	vpaddq %ymm12,%ymm13,%ymm13
    3a10:	c4 c1 05 73 d3 03    	vpsrlq $0x3,%ymm11,%ymm15
    3a16:	c5 15 ef 85 30 0c fd 	vpxor  -0x2f3d0(%rbp),%ymm13,%ymm8
    3a1d:	ff 
    3a1e:	c4 41 05 db e6       	vpand  %ymm14,%ymm15,%ymm12
    3a23:	c4 41 5d f4 fc       	vpmuludq %ymm12,%ymm4,%ymm15
    3a28:	c5 1d f4 e8          	vpmuludq %ymm0,%ymm12,%ymm13
    3a2c:	c4 41 35 ef c8       	vpxor  %ymm8,%ymm9,%ymm9
    3a31:	c4 c1 3d 73 d4 20    	vpsrlq $0x20,%ymm12,%ymm8
    3a37:	c5 3d f4 d8          	vpmuludq %ymm0,%ymm8,%ymm11
    3a3b:	c4 41 25 d4 e7       	vpaddq %ymm15,%ymm11,%ymm12
    3a40:	c4 41 7e 6f 9e c0 fe 	vmovdqu -0x140(%r14),%ymm11
    3a47:	ff ff 
    3a49:	c4 c1 3d 73 f4 20    	vpsllq $0x20,%ymm12,%ymm8
    3a4f:	c4 c1 05 73 d3 02    	vpsrlq $0x2,%ymm11,%ymm15
    3a55:	c4 41 15 d4 e8       	vpaddq %ymm8,%ymm13,%ymm13
    3a5a:	c4 41 05 db e6       	vpand  %ymm14,%ymm15,%ymm12
    3a5f:	c4 41 35 ef cd       	vpxor  %ymm13,%ymm9,%ymm9
    3a64:	c4 c1 3d 73 d4 20    	vpsrlq $0x20,%ymm12,%ymm8
    3a6a:	c4 41 4d f4 dc       	vpmuludq %ymm12,%ymm6,%ymm11
    3a6f:	c5 3d f4 c1          	vpmuludq %ymm1,%ymm8,%ymm8
    3a73:	c5 1d f4 f9          	vpmuludq %ymm1,%ymm12,%ymm15
    3a77:	c4 41 3d d4 e3       	vpaddq %ymm11,%ymm8,%ymm12
    3a7c:	c4 41 7e 6f 9e c0 fe 	vmovdqu -0x140(%r14),%ymm11
    3a83:	ff ff 
    3a85:	c4 c1 3d 73 f4 20    	vpsllq $0x20,%ymm12,%ymm8
    3a8b:	c4 c1 1d 73 d3 01    	vpsrlq $0x1,%ymm11,%ymm12
    3a91:	c4 41 05 d4 f8       	vpaddq %ymm8,%ymm15,%ymm15
    3a96:	c4 41 1d db c6       	vpand  %ymm14,%ymm12,%ymm8
    3a9b:	c4 c1 25 73 d0 20    	vpsrlq $0x20,%ymm8,%ymm11
    3aa1:	c5 3d f4 e2          	vpmuludq %ymm2,%ymm8,%ymm12
    3aa5:	c5 25 f4 da          	vpmuludq %ymm2,%ymm11,%ymm11
    3aa9:	c4 41 45 f4 c0       	vpmuludq %ymm8,%ymm7,%ymm8
    3aae:	c4 41 25 d4 d8       	vpaddq %ymm8,%ymm11,%ymm11
    3ab3:	c4 c1 3d 73 f3 20    	vpsllq $0x20,%ymm11,%ymm8
    3ab9:	c4 41 1d d4 e0       	vpaddq %ymm8,%ymm12,%ymm12
    3abe:	c4 41 05 ef dc       	vpxor  %ymm12,%ymm15,%ymm11
    3ac3:	c4 41 0d db be c0 fe 	vpand  -0x140(%r14),%ymm14,%ymm15
    3aca:	ff ff 
    3acc:	c4 c1 3d 73 d7 20    	vpsrlq $0x20,%ymm15,%ymm8
    3ad2:	c5 05 f4 e3          	vpmuludq %ymm3,%ymm15,%ymm12
    3ad6:	c5 3d f4 c3          	vpmuludq %ymm3,%ymm8,%ymm8
    3ada:	c4 41 55 f4 ff       	vpmuludq %ymm15,%ymm5,%ymm15
    3adf:	c4 41 3d d4 c7       	vpaddq %ymm15,%ymm8,%ymm8
    3ae4:	c4 c1 05 73 f0 20    	vpsllq $0x20,%ymm8,%ymm15
    3aea:	c4 41 1d d4 e7       	vpaddq %ymm15,%ymm12,%ymm12
    3aef:	c5 1d ef 85 b0 0c fd 	vpxor  -0x2f350(%rbp),%ymm12,%ymm8
    3af6:	ff 
    3af7:	c4 41 7e 6f be c0 fe 	vmovdqu -0x140(%r14),%ymm15
    3afe:	ff ff 
    3b00:	c4 c1 1d 73 d7 03    	vpsrlq $0x3,%ymm15,%ymm12
    3b06:	c4 41 25 ef d8       	vpxor  %ymm8,%ymm11,%ymm11
    3b0b:	c4 41 1d db c6       	vpand  %ymm14,%ymm12,%ymm8
    3b10:	c4 c1 1d 73 d0 20    	vpsrlq $0x20,%ymm8,%ymm12
    3b16:	c5 3d f4 f8          	vpmuludq %ymm0,%ymm8,%ymm15
    3b1a:	c5 1d f4 e0          	vpmuludq %ymm0,%ymm12,%ymm12
    3b1e:	c4 41 5d f4 c0       	vpmuludq %ymm8,%ymm4,%ymm8
    3b23:	c4 41 1d d4 e0       	vpaddq %ymm8,%ymm12,%ymm12
    3b28:	c4 c1 3d 73 f4 20    	vpsllq $0x20,%ymm12,%ymm8
    3b2e:	c5 7d 6f a5 b0 0b fd 	vmovdqa -0x2f450(%rbp),%ymm12
    3b35:	ff 
    3b36:	c4 41 05 d4 f8       	vpaddq %ymm8,%ymm15,%ymm15
    3b3b:	c5 1d ef 85 90 0c fd 	vpxor  -0x2f370(%rbp),%ymm12,%ymm8
    3b42:	ff 
    3b43:	c4 41 25 ef df       	vpxor  %ymm15,%ymm11,%ymm11
    3b48:	c5 7d 6f bd 90 0b fd 	vmovdqa -0x2f470(%rbp),%ymm15
    3b4f:	ff 
    3b50:	c5 7d 7f 9d b0 0c fd 	vmovdqa %ymm11,-0x2f350(%rbp)
    3b57:	ff 
    3b58:	c5 7e 7f 19          	vmovdqu %ymm11,(%rcx)
    3b5c:	c5 05 ef 9d 50 0c fd 	vpxor  -0x2f3b0(%rbp),%ymm15,%ymm11
    3b63:	ff 
    3b64:	c5 7d 7f 85 90 0c fd 	vmovdqa %ymm8,-0x2f370(%rbp)
    3b6b:	ff 
    3b6c:	c5 7e 7f 41 20       	vmovdqu %ymm8,0x20(%rcx)
    3b71:	c5 7d 7f 9d 50 0c fd 	vmovdqa %ymm11,-0x2f3b0(%rbp)
    3b78:	ff 
    3b79:	c5 7e 7f 59 60       	vmovdqu %ymm11,0x60(%rcx)
    3b7e:	c4 41 7e 6f 56 80    	vmovdqu -0x80(%r14),%ymm10
    3b84:	c4 41 7e 6f 46 c0    	vmovdqu -0x40(%r14),%ymm8
    3b8a:	c5 7d 7f 8d 30 0c fd 	vmovdqa %ymm9,-0x2f3d0(%rbp)
    3b91:	ff 
    3b92:	c4 c1 15 73 d2 01    	vpsrlq $0x1,%ymm10,%ymm13
    3b98:	c5 7e 7f 89 80 00 00 	vmovdqu %ymm9,0x80(%rcx)
    3b9f:	00 
    3ba0:	c4 41 7e 6f 4e a0    	vmovdqu -0x60(%r14),%ymm9
    3ba6:	c4 41 15 db de       	vpand  %ymm14,%ymm13,%ymm11
    3bab:	c4 c1 1d 73 d3 20    	vpsrlq $0x20,%ymm11,%ymm12
    3bb1:	c5 25 f4 fa          	vpmuludq %ymm2,%ymm11,%ymm15
    3bb5:	c5 1d f4 ea          	vpmuludq %ymm2,%ymm12,%ymm13
    3bb9:	c4 41 45 f4 db       	vpmuludq %ymm11,%ymm7,%ymm11
    3bbe:	c4 41 15 d4 e3       	vpaddq %ymm11,%ymm13,%ymm12
    3bc3:	c4 c1 25 73 d2 02    	vpsrlq $0x2,%ymm10,%ymm11
    3bc9:	c4 c1 15 73 f4 20    	vpsllq $0x20,%ymm12,%ymm13
    3bcf:	c4 41 25 db e6       	vpand  %ymm14,%ymm11,%ymm12
    3bd4:	c4 c1 25 73 d4 20    	vpsrlq $0x20,%ymm12,%ymm11
    3bda:	c4 41 05 d4 fd       	vpaddq %ymm13,%ymm15,%ymm15
    3bdf:	c5 25 f4 d9          	vpmuludq %ymm1,%ymm11,%ymm11
    3be3:	c5 1d f4 e9          	vpmuludq %ymm1,%ymm12,%ymm13
    3be7:	c4 41 4d f4 e4       	vpmuludq %ymm12,%ymm6,%ymm12
    3bec:	c4 41 25 d4 dc       	vpaddq %ymm12,%ymm11,%ymm11
    3bf1:	c4 c1 1d 73 f3 20    	vpsllq $0x20,%ymm11,%ymm12
    3bf7:	c4 41 15 d4 ec       	vpaddq %ymm12,%ymm13,%ymm13
    3bfc:	c4 41 2d db e6       	vpand  %ymm14,%ymm10,%ymm12
    3c01:	c4 c1 25 73 d4 20    	vpsrlq $0x20,%ymm12,%ymm11
    3c07:	c4 c1 2d 73 d2 03    	vpsrlq $0x3,%ymm10,%ymm10
    3c0d:	c4 41 05 ef ed       	vpxor  %ymm13,%ymm15,%ymm13
    3c12:	c5 25 f4 db          	vpmuludq %ymm3,%ymm11,%ymm11
    3c16:	c5 1d f4 fb          	vpmuludq %ymm3,%ymm12,%ymm15
    3c1a:	c4 41 55 f4 e4       	vpmuludq %ymm12,%ymm5,%ymm12
    3c1f:	c4 41 25 d4 dc       	vpaddq %ymm12,%ymm11,%ymm11
    3c24:	c4 c1 1d 73 f3 20    	vpsllq $0x20,%ymm11,%ymm12
    3c2a:	c4 41 05 d4 fc       	vpaddq %ymm12,%ymm15,%ymm15
    3c2f:	c5 05 ef 9d f0 0b fd 	vpxor  -0x2f410(%rbp),%ymm15,%ymm11
    3c36:	ff 
    3c37:	c4 41 2d db fe       	vpand  %ymm14,%ymm10,%ymm15
    3c3c:	c4 41 5d f4 d7       	vpmuludq %ymm15,%ymm4,%ymm10
    3c41:	c5 05 f4 e0          	vpmuludq %ymm0,%ymm15,%ymm12
    3c45:	c4 41 15 ef eb       	vpxor  %ymm11,%ymm13,%ymm13
    3c4a:	c4 c1 25 73 d7 20    	vpsrlq $0x20,%ymm15,%ymm11
    3c50:	c5 7d 7f ad f0 0b fd 	vmovdqa %ymm13,-0x2f410(%rbp)
    3c57:	ff 
    3c58:	c5 25 f4 e8          	vpmuludq %ymm0,%ymm11,%ymm13
    3c5c:	c4 41 15 d4 fa       	vpaddq %ymm10,%ymm13,%ymm15
    3c61:	c4 c1 15 73 d1 01    	vpsrlq $0x1,%ymm9,%ymm13
    3c67:	c4 41 15 db d6       	vpand  %ymm14,%ymm13,%ymm10
    3c6c:	c4 c1 25 73 f7 20    	vpsllq $0x20,%ymm15,%ymm11
    3c72:	c4 41 45 f4 ea       	vpmuludq %ymm10,%ymm7,%ymm13
    3c77:	c5 2d f4 fa          	vpmuludq %ymm2,%ymm10,%ymm15
    3c7b:	c4 41 1d d4 e3       	vpaddq %ymm11,%ymm12,%ymm12
    3c80:	c4 c1 25 73 d2 20    	vpsrlq $0x20,%ymm10,%ymm11
    3c86:	c5 7d 7f a5 b0 0b fd 	vmovdqa %ymm12,-0x2f450(%rbp)
    3c8d:	ff 
    3c8e:	c5 25 f4 e2          	vpmuludq %ymm2,%ymm11,%ymm12
    3c92:	c4 41 1d d4 d5       	vpaddq %ymm13,%ymm12,%ymm10
    3c97:	c4 c1 1d 73 d1 02    	vpsrlq $0x2,%ymm9,%ymm12
    3c9d:	c4 41 1d db ee       	vpand  %ymm14,%ymm12,%ymm13
    3ca2:	c4 c1 25 73 f2 20    	vpsllq $0x20,%ymm10,%ymm11
    3ca8:	c4 c1 2d 73 d5 20    	vpsrlq $0x20,%ymm13,%ymm10
    3cae:	c5 15 f4 e1          	vpmuludq %ymm1,%ymm13,%ymm12
    3cb2:	c4 41 05 d4 fb       	vpaddq %ymm11,%ymm15,%ymm15
    3cb7:	c4 41 4d f4 ed       	vpmuludq %ymm13,%ymm6,%ymm13
    3cbc:	c5 2d f4 d9          	vpmuludq %ymm1,%ymm10,%ymm11
    3cc0:	c4 41 25 d4 d5       	vpaddq %ymm13,%ymm11,%ymm10
    3cc5:	c4 c1 25 73 f2 20    	vpsllq $0x20,%ymm10,%ymm11
    3ccb:	c4 41 35 db d6       	vpand  %ymm14,%ymm9,%ymm10
    3cd0:	c5 2d f4 eb          	vpmuludq %ymm3,%ymm10,%ymm13
    3cd4:	c4 c1 35 73 d1 03    	vpsrlq $0x3,%ymm9,%ymm9
    3cda:	c4 41 1d d4 e3       	vpaddq %ymm11,%ymm12,%ymm12
    3cdf:	c4 c1 25 73 d2 20    	vpsrlq $0x20,%ymm10,%ymm11
    3ce5:	c4 41 55 f4 d2       	vpmuludq %ymm10,%ymm5,%ymm10
    3cea:	c4 41 05 ef fc       	vpxor  %ymm12,%ymm15,%ymm15
    3cef:	c5 25 f4 e3          	vpmuludq %ymm3,%ymm11,%ymm12
    3cf3:	c4 41 1d d4 da       	vpaddq %ymm10,%ymm12,%ymm11
    3cf8:	c4 c1 1d 73 f3 20    	vpsllq $0x20,%ymm11,%ymm12
    3cfe:	c4 41 15 d4 ec       	vpaddq %ymm12,%ymm13,%ymm13
    3d03:	c5 15 ef 95 d0 0b fd 	vpxor  -0x2f430(%rbp),%ymm13,%ymm10
    3d0a:	ff 
    3d0b:	c4 41 05 ef d2       	vpxor  %ymm10,%ymm15,%ymm10
    3d10:	c4 41 35 db fe       	vpand  %ymm14,%ymm9,%ymm15
    3d15:	c4 c1 25 73 d7 20    	vpsrlq $0x20,%ymm15,%ymm11
    3d1b:	c4 41 5d f4 cf       	vpmuludq %ymm15,%ymm4,%ymm9
    3d20:	c5 25 f4 e8          	vpmuludq %ymm0,%ymm11,%ymm13
    3d24:	c5 05 f4 e0          	vpmuludq %ymm0,%ymm15,%ymm12
    3d28:	c4 41 15 d4 f9       	vpaddq %ymm9,%ymm13,%ymm15
    3d2d:	c4 c1 25 73 f7 20    	vpsllq $0x20,%ymm15,%ymm11
    3d33:	c4 41 1d d4 eb       	vpaddq %ymm11,%ymm12,%ymm13
    3d38:	c4 c1 1d 73 d0 01    	vpsrlq $0x1,%ymm8,%ymm12
    3d3e:	c4 41 1d db ce       	vpand  %ymm14,%ymm12,%ymm9
    3d43:	c4 41 2d ef d5       	vpxor  %ymm13,%ymm10,%ymm10
    3d48:	c4 c1 25 73 d1 20    	vpsrlq $0x20,%ymm9,%ymm11
    3d4e:	c5 35 f4 fa          	vpmuludq %ymm2,%ymm9,%ymm15
    3d52:	c5 7d 7f 95 d0 0b fd 	vmovdqa %ymm10,-0x2f430(%rbp)
    3d59:	ff 
    3d5a:	c5 25 f4 e2          	vpmuludq %ymm2,%ymm11,%ymm12
    3d5e:	c4 41 45 f4 c9       	vpmuludq %ymm9,%ymm7,%ymm9
    3d63:	c5 7e 7f 91 e0 00 00 	vmovdqu %ymm10,0xe0(%rcx)
    3d6a:	00 
    3d6b:	c4 41 1d d4 d9       	vpaddq %ymm9,%ymm12,%ymm11
    3d70:	c4 c1 35 73 d0 02    	vpsrlq $0x2,%ymm8,%ymm9
    3d76:	c4 41 35 db ce       	vpand  %ymm14,%ymm9,%ymm9
    3d7b:	c4 c1 1d 73 f3 20    	vpsllq $0x20,%ymm11,%ymm12
    3d81:	c4 c1 25 73 d1 20    	vpsrlq $0x20,%ymm9,%ymm11
    3d87:	c4 41 05 d4 fc       	vpaddq %ymm12,%ymm15,%ymm15
    3d8c:	c5 25 f4 d9          	vpmuludq %ymm1,%ymm11,%ymm11
    3d90:	c5 35 f4 e1          	vpmuludq %ymm1,%ymm9,%ymm12
    3d94:	c4 41 4d f4 c9       	vpmuludq %ymm9,%ymm6,%ymm9
    3d99:	c4 41 25 d4 d9       	vpaddq %ymm9,%ymm11,%ymm11
    3d9e:	c4 c1 35 73 f3 20    	vpsllq $0x20,%ymm11,%ymm9
    3da4:	c4 41 1d d4 e1       	vpaddq %ymm9,%ymm12,%ymm12
    3da9:	c4 41 3d db ce       	vpand  %ymm14,%ymm8,%ymm9
    3dae:	c4 c1 25 73 d1 20    	vpsrlq $0x20,%ymm9,%ymm11
    3db4:	c4 c1 3d 73 d0 03    	vpsrlq $0x3,%ymm8,%ymm8
    3dba:	c4 41 05 ef e4       	vpxor  %ymm12,%ymm15,%ymm12
    3dbf:	c5 25 f4 db          	vpmuludq %ymm3,%ymm11,%ymm11
    3dc3:	c5 35 f4 fb          	vpmuludq %ymm3,%ymm9,%ymm15
    3dc7:	c4 41 55 f4 c9       	vpmuludq %ymm9,%ymm5,%ymm9
    3dcc:	c4 41 25 d4 d9       	vpaddq %ymm9,%ymm11,%ymm11
    3dd1:	c4 c1 35 73 f3 20    	vpsllq $0x20,%ymm11,%ymm9
    3dd7:	c4 41 05 d4 f9       	vpaddq %ymm9,%ymm15,%ymm15
    3ddc:	c5 05 ef 9d f0 0c fd 	vpxor  -0x2f310(%rbp),%ymm15,%ymm11
    3de3:	ff 
    3de4:	c4 41 3d db fe       	vpand  %ymm14,%ymm8,%ymm15
    3de9:	c4 c1 35 73 d7 20    	vpsrlq $0x20,%ymm15,%ymm9
    3def:	c4 41 5d f4 c7       	vpmuludq %ymm15,%ymm4,%ymm8
    3df4:	c4 41 1d ef e3       	vpxor  %ymm11,%ymm12,%ymm12
    3df9:	c5 05 f4 d8          	vpmuludq %ymm0,%ymm15,%ymm11
    3dfd:	c5 7d 7f a5 f0 0c fd 	vmovdqa %ymm12,-0x2f310(%rbp)
    3e04:	ff 
    3e05:	c5 35 f4 e0          	vpmuludq %ymm0,%ymm9,%ymm12
    3e09:	c4 41 1d d4 f8       	vpaddq %ymm8,%ymm12,%ymm15
    3e0e:	c4 41 7e 6f 66 e0    	vmovdqu -0x20(%r14),%ymm12
    3e14:	c4 c1 35 73 f7 20    	vpsllq $0x20,%ymm15,%ymm9
    3e1a:	c4 c1 3d 73 d4 01    	vpsrlq $0x1,%ymm12,%ymm8
    3e20:	c4 41 25 d4 d9       	vpaddq %ymm9,%ymm11,%ymm11
    3e25:	c4 41 3d db fe       	vpand  %ymm14,%ymm8,%ymm15
    3e2a:	c5 7d 7f 9d 90 0b fd 	vmovdqa %ymm11,-0x2f470(%rbp)
    3e31:	ff 
    3e32:	c5 7d 6f ad 90 0b fd 	vmovdqa -0x2f470(%rbp),%ymm13
    3e39:	ff 
    3e3a:	c4 c1 35 73 d7 20    	vpsrlq $0x20,%ymm15,%ymm9
    3e40:	c4 41 45 f4 c7       	vpmuludq %ymm15,%ymm7,%ymm8
    3e45:	c5 35 f4 e2          	vpmuludq %ymm2,%ymm9,%ymm12
    3e49:	c5 05 f4 da          	vpmuludq %ymm2,%ymm15,%ymm11
    3e4d:	c4 41 1d d4 f8       	vpaddq %ymm8,%ymm12,%ymm15
    3e52:	c4 c1 35 73 f7 20    	vpsllq $0x20,%ymm15,%ymm9
    3e58:	c4 41 25 d4 e1       	vpaddq %ymm9,%ymm11,%ymm12
    3e5d:	c4 41 7e 6f 5e e0    	vmovdqu -0x20(%r14),%ymm11
    3e63:	c4 c1 3d 73 d3 02    	vpsrlq $0x2,%ymm11,%ymm8
    3e69:	c4 41 3d db fe       	vpand  %ymm14,%ymm8,%ymm15
    3e6e:	c4 c1 35 73 d7 20    	vpsrlq $0x20,%ymm15,%ymm9
    3e74:	c4 41 4d f4 c7       	vpmuludq %ymm15,%ymm6,%ymm8
    3e79:	c5 35 f4 c9          	vpmuludq %ymm1,%ymm9,%ymm9
    3e7d:	c5 05 f4 d9          	vpmuludq %ymm1,%ymm15,%ymm11
    3e81:	c4 41 35 d4 f8       	vpaddq %ymm8,%ymm9,%ymm15
    3e86:	c4 c1 35 73 f7 20    	vpsllq $0x20,%ymm15,%ymm9
    3e8c:	c4 41 25 d4 d9       	vpaddq %ymm9,%ymm11,%ymm11
    3e91:	c4 41 1d ef cb       	vpxor  %ymm11,%ymm12,%ymm9
    3e96:	c4 41 0d db 66 e0    	vpand  -0x20(%r14),%ymm14,%ymm12
    3e9c:	c4 c1 3d 73 d4 20    	vpsrlq $0x20,%ymm12,%ymm8
    3ea2:	c5 1d f4 fb          	vpmuludq %ymm3,%ymm12,%ymm15
    3ea6:	c5 3d f4 db          	vpmuludq %ymm3,%ymm8,%ymm11
    3eaa:	c4 41 55 f4 e4       	vpmuludq %ymm12,%ymm5,%ymm12
    3eaf:	c4 41 25 d4 c4       	vpaddq %ymm12,%ymm11,%ymm8
    3eb4:	c4 c1 25 73 f0 20    	vpsllq $0x20,%ymm8,%ymm11
    3eba:	c4 41 7e 6f 46 e0    	vmovdqu -0x20(%r14),%ymm8
    3ec0:	c4 41 05 d4 fb       	vpaddq %ymm11,%ymm15,%ymm15
    3ec5:	c5 05 ef a5 d0 0c fd 	vpxor  -0x2f330(%rbp),%ymm15,%ymm12
    3ecc:	ff 
    3ecd:	c4 c1 25 73 d0 03    	vpsrlq $0x3,%ymm8,%ymm11
    3ed3:	c4 41 25 db fe       	vpand  %ymm14,%ymm11,%ymm15
    3ed8:	c4 41 35 ef cc       	vpxor  %ymm12,%ymm9,%ymm9
    3edd:	c4 c1 3d 73 d7 20    	vpsrlq $0x20,%ymm15,%ymm8
    3ee3:	c5 05 f4 e0          	vpmuludq %ymm0,%ymm15,%ymm12
    3ee7:	c5 3d f4 d8          	vpmuludq %ymm0,%ymm8,%ymm11
    3eeb:	c4 41 5d f4 ff       	vpmuludq %ymm15,%ymm4,%ymm15
    3ef0:	c4 41 25 d4 c7       	vpaddq %ymm15,%ymm11,%ymm8
    3ef5:	c4 41 7e 6f be 60 ff 	vmovdqu -0xa0(%r14),%ymm15
    3efc:	ff ff 
    3efe:	c4 c1 25 73 f0 20    	vpsllq $0x20,%ymm8,%ymm11
    3f04:	c4 c1 3d 73 d7 01    	vpsrlq $0x1,%ymm15,%ymm8
    3f0a:	c4 41 1d d4 e3       	vpaddq %ymm11,%ymm12,%ymm12
    3f0f:	c4 41 3d db de       	vpand  %ymm14,%ymm8,%ymm11
    3f14:	c4 41 35 ef cc       	vpxor  %ymm12,%ymm9,%ymm9
    3f19:	c4 c1 3d 73 d3 20    	vpsrlq $0x20,%ymm11,%ymm8
    3f1f:	c5 25 f4 fa          	vpmuludq %ymm2,%ymm11,%ymm15
    3f23:	c4 c1 45 f4 fb       	vpmuludq %ymm11,%ymm7,%ymm7
    3f28:	c5 bd f4 d2          	vpmuludq %ymm2,%ymm8,%ymm2
    3f2c:	c5 6d d4 df          	vpaddq %ymm7,%ymm2,%ymm11
    3f30:	c4 c1 7e 6f 96 60 ff 	vmovdqu -0xa0(%r14),%ymm2
    3f37:	ff ff 
    3f39:	c4 c1 3d 73 f3 20    	vpsllq $0x20,%ymm11,%ymm8
    3f3f:	c5 c5 73 d2 02       	vpsrlq $0x2,%ymm2,%ymm7
    3f44:	c4 41 05 d4 f8       	vpaddq %ymm8,%ymm15,%ymm15
    3f49:	c4 41 45 db de       	vpand  %ymm14,%ymm7,%ymm11
    3f4e:	c4 c1 6d 73 d3 20    	vpsrlq $0x20,%ymm11,%ymm2
    3f54:	c5 25 f4 c1          	vpmuludq %ymm1,%ymm11,%ymm8
    3f58:	c4 c1 4d f4 f3       	vpmuludq %ymm11,%ymm6,%ymm6
    3f5d:	c5 ed f4 c9          	vpmuludq %ymm1,%ymm2,%ymm1
    3f61:	c5 f5 d4 fe          	vpaddq %ymm6,%ymm1,%ymm7
    3f65:	c4 c1 0d db b6 60 ff 	vpand  -0xa0(%r14),%ymm14,%ymm6
    3f6c:	ff ff 
    3f6e:	c5 a5 73 f7 20       	vpsllq $0x20,%ymm7,%ymm11
    3f73:	c5 ed 73 d6 20       	vpsrlq $0x20,%ymm6,%ymm2
    3f78:	c5 cd f4 cb          	vpmuludq %ymm3,%ymm6,%ymm1
    3f7c:	c4 41 3d d4 c3       	vpaddq %ymm11,%ymm8,%ymm8
    3f81:	c5 ed f4 db          	vpmuludq %ymm3,%ymm2,%ymm3
    3f85:	c5 d5 f4 ee          	vpmuludq %ymm6,%ymm5,%ymm5
    3f89:	c4 41 05 ef f8       	vpxor  %ymm8,%ymm15,%ymm15
    3f8e:	c5 e5 d4 fd          	vpaddq %ymm5,%ymm3,%ymm7
    3f92:	c5 a5 73 f7 20       	vpsllq $0x20,%ymm7,%ymm11
    3f97:	c4 41 75 d4 c3       	vpaddq %ymm11,%ymm1,%ymm8
    3f9c:	c5 bd ef b5 10 0c fd 	vpxor  -0x2f3f0(%rbp),%ymm8,%ymm6
    3fa3:	ff 
    3fa4:	c4 c1 7e 6f 8e 60 ff 	vmovdqu -0xa0(%r14),%ymm1
    3fab:	ff ff 
    3fad:	4d 39 f2             	cmp    %r14,%r10
    3fb0:	c5 ed 73 d1 03       	vpsrlq $0x3,%ymm1,%ymm2
    3fb5:	c5 05 ef fe          	vpxor  %ymm6,%ymm15,%ymm15
    3fb9:	c5 fd 6f 8d b0 0b fd 	vmovdqa -0x2f450(%rbp),%ymm1
    3fc0:	ff 
    3fc1:	c4 c1 6d db fe       	vpand  %ymm14,%ymm2,%ymm7
    3fc6:	c5 f5 ef 95 f0 0b fd 	vpxor  -0x2f410(%rbp),%ymm1,%ymm2
    3fcd:	ff 
    3fce:	c5 e5 73 d7 20       	vpsrlq $0x20,%ymm7,%ymm3
    3fd3:	c5 c5 f4 e8          	vpmuludq %ymm0,%ymm7,%ymm5
    3fd7:	c5 dd f4 e7          	vpmuludq %ymm7,%ymm4,%ymm4
    3fdb:	c5 e5 f4 c0          	vpmuludq %ymm0,%ymm3,%ymm0
    3fdf:	c5 95 ef bd f0 0c fd 	vpxor  -0x2f310(%rbp),%ymm13,%ymm7
    3fe6:	ff 
    3fe7:	c5 fd 7f 95 f0 0b fd 	vmovdqa %ymm2,-0x2f410(%rbp)
    3fee:	ff 
    3fef:	c5 fe 7f 91 c0 00 00 	vmovdqu %ymm2,0xc0(%rcx)
    3ff6:	00 
    3ff7:	c5 7d d4 dc          	vpaddq %ymm4,%ymm0,%ymm11
    3ffb:	c4 c1 3d 73 f3 20    	vpsllq $0x20,%ymm11,%ymm8
    4001:	c4 c1 55 d4 f0       	vpaddq %ymm8,%ymm5,%ymm6
    4006:	c5 05 ef fe          	vpxor  %ymm6,%ymm15,%ymm15
    400a:	c5 7d 7f bd 10 0c fd 	vmovdqa %ymm15,-0x2f3f0(%rbp)
    4011:	ff 
    4012:	c5 7e 7f b9 a0 00 00 	vmovdqu %ymm15,0xa0(%rcx)
    4019:	00 
    401a:	c5 fd 7f bd f0 0c fd 	vmovdqa %ymm7,-0x2f310(%rbp)
    4021:	ff 
    4022:	c5 fe 7f b9 00 01 00 	vmovdqu %ymm7,0x100(%rcx)
    4029:	00 
    402a:	c5 7d 7f 8d d0 0c fd 	vmovdqa %ymm9,-0x2f330(%rbp)
    4031:	ff 
    4032:	c5 7e 7f 89 20 01 00 	vmovdqu %ymm9,0x120(%rcx)
    4039:	00 
    403a:	0f 85 10 f6 ff ff    	jne    3650 <pqmayo_MAYO_1_opt_mayo_sign_signature+0x740>
    4040:	49 83 c0 4e          	add    $0x4e,%r8
    4044:	48 81 c1 40 01 00 00 	add    $0x140,%rcx
    404b:	48 39 8d 88 0b fd ff 	cmp    %rcx,-0x2f478(%rbp)
    4052:	0f 85 56 f5 ff ff    	jne    35ae <pqmayo_MAYO_1_opt_mayo_sign_signature+0x69e>
    4058:	48 8b 9d 88 0b fd ff 	mov    -0x2f478(%rbp),%rbx
    405f:	31 f6                	xor    %esi,%esi
    4061:	ba e0 79 00 00       	mov    $0x79e0,%edx
    4066:	c5 f8 77             	vzeroupper
    4069:	48 89 df             	mov    %rbx,%rdi
    406c:	e8 ef d0 ff ff       	call   1160 <memset@plt>
    4071:	31 c0                	xor    %eax,%eax
    4073:	4c 8b ad 88 0a fd ff 	mov    -0x2f578(%rbp),%r13
    407a:	31 f6                	xor    %esi,%esi
    407c:	4c 8b 8d 60 0a fd ff 	mov    -0x2f5a0(%rbp),%r9
    4083:	c5 7d 6f 35 d5 20 01 	vmovdqa 0x120d5(%rip),%ymm14        # 16160 <_IO_stdin_used+0x160>
    408a:	00 
    408b:	31 ff                	xor    %edi,%edi
    408d:	41 89 c4             	mov    %eax,%r12d
    4090:	4d 63 f4             	movslq %r12d,%r14
    4093:	44 89 a5 b0 0c fd ff 	mov    %r12d,-0x2f350(%rbp)
    409a:	89 fa                	mov    %edi,%edx
    409c:	48 89 9d d0 0c fd ff 	mov    %rbx,-0x2f330(%rbp)
    40a3:	4f 8d 1c b6          	lea    (%r14,%r14,4),%r11
    40a7:	89 bd 90 0c fd ff    	mov    %edi,-0x2f370(%rbp)
    40ad:	4f 8d 34 d9          	lea    (%r9,%r11,8),%r14
    40b1:	4d 8d 5c 3d 00       	lea    0x0(%r13,%rdi,1),%r11
    40b6:	89 b5 70 0c fd ff    	mov    %esi,-0x2f390(%rbp)
    40bc:	4c 89 ee             	mov    %r13,%rsi
    40bf:	48 89 bd 50 0c fd ff 	mov    %rdi,-0x2f3b0(%rbp)
    40c6:	4c 89 cf             	mov    %r9,%rdi
    40c9:	0f 1f 80 00 00 00 00 	nopl   0x0(%rax)
    40d0:	c4 41 7e 6f 26       	vmovdqu (%r14),%ymm12
    40d5:	4d 8b 56 20          	mov    0x20(%r14),%r10
    40d9:	49 bd 11 11 11 11 11 	movabs $0x1111111111111111,%r13
    40e0:	11 11 11 
    40e3:	89 95 f0 0c fd ff    	mov    %edx,-0x2f310(%rbp)
    40e9:	4c 8b 85 d0 0c fd ff 	mov    -0x2f330(%rbp),%r8
    40f0:	4d 8d 8b f4 fc ff ff 	lea    -0x30c(%r11),%r9
    40f7:	48 b9 11 11 11 11 11 	movabs $0x1111111111111111,%rcx
    40fe:	11 11 11 
    4101:	4d 89 d4             	mov    %r10,%r12
    4104:	4c 89 d3             	mov    %r10,%rbx
    4107:	c4 c1 1d db d6       	vpand  %ymm14,%ymm12,%ymm2
    410c:	4d 21 d5             	and    %r10,%r13
    410f:	c4 c1 55 73 d4 03    	vpsrlq $0x3,%ymm12,%ymm5
    4115:	c4 c1 7d 73 d4 02    	vpsrlq $0x2,%ymm12,%ymm0
    411b:	49 d1 ec             	shr    $1,%r12
    411e:	c4 c1 5d 73 d4 01    	vpsrlq $0x1,%ymm12,%ymm4
    4124:	c4 c1 55 db de       	vpand  %ymm14,%ymm5,%ymm3
    4129:	c4 41 7d db fe       	vpand  %ymm14,%ymm0,%ymm15
    412e:	49 21 cc             	and    %rcx,%r12
    4131:	c4 41 5d db ee       	vpand  %ymm14,%ymm4,%ymm13
    4136:	48 c1 eb 02          	shr    $0x2,%rbx
    413a:	c5 b5 73 d2 20       	vpsrlq $0x20,%ymm2,%ymm9
    413f:	49 c1 ea 03          	shr    $0x3,%r10
    4143:	c4 c1 3d 73 d7 20    	vpsrlq $0x20,%ymm15,%ymm8
    4149:	48 21 cb             	and    %rcx,%rbx
    414c:	c4 c1 45 73 d5 20    	vpsrlq $0x20,%ymm13,%ymm7
    4152:	c5 cd 73 d3 20       	vpsrlq $0x20,%ymm3,%ymm6
    4157:	49 21 ca             	and    %rcx,%r10
    415a:	66 0f 1f 44 00 00    	nopw   0x0(%rax,%rax,1)
    4160:	45 0f b6 39          	movzbl (%r9),%r15d
    4164:	49 83 c1 4e          	add    $0x4e,%r9
    4168:	49 83 c0 28          	add    $0x28,%r8
    416c:	41 69 d7 01 02 04 08 	imul   $0x8040201,%r15d,%edx
    4173:	89 d1                	mov    %edx,%ecx
    4175:	81 e1 f0 f0 f0 f0    	and    $0xf0f0f0f0,%ecx
    417b:	89 c8                	mov    %ecx,%eax
    417d:	c1 e9 03             	shr    $0x3,%ecx
    4180:	c1 e8 04             	shr    $0x4,%eax
    4183:	31 c8                	xor    %ecx,%eax
    4185:	31 d0                	xor    %edx,%eax
    4187:	44 0f b6 f8          	movzbl %al,%r15d
    418b:	89 c2                	mov    %eax,%edx
    418d:	89 c1                	mov    %eax,%ecx
    418f:	c1 e8 18             	shr    $0x18,%eax
    4192:	c1 ea 10             	shr    $0x10,%edx
    4195:	c4 41 f9 6e df       	vmovq  %r15,%xmm11
    419a:	c1 e9 08             	shr    $0x8,%ecx
    419d:	83 e0 0f             	and    $0xf,%eax
    41a0:	c4 c2 7d 59 cb       	vpbroadcastq %xmm11,%ymm1
    41a5:	4d 0f af fd          	imul   %r13,%r15
    41a9:	83 e2 0f             	and    $0xf,%edx
    41ac:	83 e1 0f             	and    $0xf,%ecx
    41af:	c5 9d 73 d1 20       	vpsrlq $0x20,%ymm1,%ymm12
    41b4:	c5 b5 f4 c1          	vpmuludq %ymm1,%ymm9,%ymm0
    41b8:	4d 33 78 f8          	xor    -0x8(%r8),%r15
    41bc:	c5 9d f4 ea          	vpmuludq %ymm2,%ymm12,%ymm5
    41c0:	c5 75 f4 d2          	vpmuludq %ymm2,%ymm1,%ymm10
    41c4:	c4 61 f9 6e e2       	vmovq  %rdx,%xmm12
    41c9:	48 0f af d3          	imul   %rbx,%rdx
    41cd:	c5 d5 d4 e0          	vpaddq %ymm0,%ymm5,%ymm4
    41d1:	c4 c2 7d 59 ec       	vpbroadcastq %xmm12,%ymm5
    41d6:	c5 a5 73 f4 20       	vpsllq $0x20,%ymm4,%ymm11
    41db:	c5 dd 73 d5 20       	vpsrlq $0x20,%ymm5,%ymm4
    41e0:	c4 c1 2d d4 cb       	vpaddq %ymm11,%ymm10,%ymm1
    41e5:	c5 3d f4 dd          	vpmuludq %ymm5,%ymm8,%ymm11
    41e9:	c4 41 75 ef 50 d8    	vpxor  -0x28(%r8),%ymm1,%ymm10
    41ef:	c4 c1 5d f4 cf       	vpmuludq %ymm15,%ymm4,%ymm1
    41f4:	c4 c1 55 f4 c7       	vpmuludq %ymm15,%ymm5,%ymm0
    41f9:	c4 e1 f9 6e e1       	vmovq  %rcx,%xmm4
    41fe:	49 0f af cc          	imul   %r12,%rcx
    4202:	4c 31 f9             	xor    %r15,%rcx
    4205:	c4 41 75 d4 e3       	vpaddq %ymm11,%ymm1,%ymm12
    420a:	48 31 ca             	xor    %rcx,%rdx
    420d:	c4 c1 55 73 f4 20    	vpsllq $0x20,%ymm12,%ymm5
    4213:	c4 62 7d 59 e4       	vpbroadcastq %xmm4,%ymm12
    4218:	c4 c1 75 73 d4 20    	vpsrlq $0x20,%ymm12,%ymm1
    421e:	c4 c1 45 f4 e4       	vpmuludq %ymm12,%ymm7,%ymm4
    4223:	c5 fd d4 c5          	vpaddq %ymm5,%ymm0,%ymm0
    4227:	c4 c1 75 f4 ed       	vpmuludq %ymm13,%ymm1,%ymm5
    422c:	c4 41 1d f4 dd       	vpmuludq %ymm13,%ymm12,%ymm11
    4231:	c5 55 d4 e4          	vpaddq %ymm4,%ymm5,%ymm12
    4235:	c4 c1 75 73 f4 20    	vpsllq $0x20,%ymm12,%ymm1
    423b:	c5 25 d4 d9          	vpaddq %ymm1,%ymm11,%ymm11
    423f:	c4 c1 7d ef c3       	vpxor  %ymm11,%ymm0,%ymm0
    4244:	c5 ad ef e8          	vpxor  %ymm0,%ymm10,%ymm5
    4248:	c4 61 f9 6e d0       	vmovq  %rax,%xmm10
    424d:	c4 c2 7d 59 e2       	vpbroadcastq %xmm10,%ymm4
    4252:	49 0f af c2          	imul   %r10,%rax
    4256:	c5 f5 73 d4 20       	vpsrlq $0x20,%ymm4,%ymm1
    425b:	c5 cd f4 c4          	vpmuludq %ymm4,%ymm6,%ymm0
    425f:	c5 75 f4 db          	vpmuludq %ymm3,%ymm1,%ymm11
    4263:	c5 5d f4 e3          	vpmuludq %ymm3,%ymm4,%ymm12
    4267:	48 31 c2             	xor    %rax,%rdx
    426a:	49 89 50 f8          	mov    %rdx,-0x8(%r8)
    426e:	c5 25 d4 d0          	vpaddq %ymm0,%ymm11,%ymm10
    4272:	c4 c1 5d 73 f2 20    	vpsllq $0x20,%ymm10,%ymm4
    4278:	c5 1d d4 e4          	vpaddq %ymm4,%ymm12,%ymm12
    427c:	c4 c1 55 ef ec       	vpxor  %ymm12,%ymm5,%ymm5
    4281:	c4 c1 7e 7f 68 d8    	vmovdqu %ymm5,-0x28(%r8)
    4287:	4d 39 cb             	cmp    %r9,%r11
    428a:	0f 85 d0 fe ff ff    	jne    4160 <pqmayo_MAYO_1_opt_mayo_sign_signature+0x1250>
    4290:	8b 95 f0 0c fd ff    	mov    -0x2f310(%rbp),%edx
    4296:	49 83 c6 28          	add    $0x28,%r14
    429a:	49 83 c3 01          	add    $0x1,%r11
    429e:	83 c2 01             	add    $0x1,%edx
    42a1:	83 fa 4e             	cmp    $0x4e,%edx
    42a4:	0f 85 26 fe ff ff    	jne    40d0 <pqmayo_MAYO_1_opt_mayo_sign_signature+0x11c0>
    42aa:	44 8b a5 b0 0c fd ff 	mov    -0x2f350(%rbp),%r12d
    42b1:	49 89 f5             	mov    %rsi,%r13
    42b4:	8b b5 70 0c fd ff    	mov    -0x2f390(%rbp),%esi
    42ba:	49 89 f9             	mov    %rdi,%r9
    42bd:	44 8b b5 90 0c fd ff 	mov    -0x2f370(%rbp),%r14d
    42c4:	48 8b 9d d0 0c fd ff 	mov    -0x2f330(%rbp),%rbx
    42cb:	48 8b bd 50 0c fd ff 	mov    -0x2f3b0(%rbp),%rdi
    42d2:	41 83 c4 4e          	add    $0x4e,%r12d
    42d6:	83 c6 0a             	add    $0xa,%esi
    42d9:	45 29 f4             	sub    %r14d,%r12d
    42dc:	48 81 c3 90 01 00 00 	add    $0x190,%rbx
    42e3:	48 83 c7 01          	add    $0x1,%rdi
    42e7:	81 fe 0c 03 00 00    	cmp    $0x30c,%esi
    42ed:	0f 85 9d fd ff ff    	jne    4090 <pqmayo_MAYO_1_opt_mayo_sign_signature+0x1180>
    42f3:	4c 8b 95 88 0b fd ff 	mov    -0x2f478(%rbp),%r10
    42fa:	48 8b 85 c0 0a fd ff 	mov    -0x2f540(%rbp),%rax
    4301:	4c 8b 9d c8 0a fd ff 	mov    -0x2f538(%rbp),%r11
    4308:	4d 8d a2 e0 79 00 00 	lea    0x79e0(%r10),%r12
    430f:	c5 fe 6f 58 20       	vmovdqu 0x20(%rax),%ymm3
    4314:	c5 7e 6f 78 40       	vmovdqu 0x40(%rax),%ymm15
    4319:	4c 89 da             	mov    %r11,%rdx
    431c:	c5 7e 6f 68 60       	vmovdqu 0x60(%rax),%ymm13
    4321:	c5 fe 6f 90 80 00 00 	vmovdqu 0x80(%rax),%ymm2
    4328:	00 
    4329:	c5 7e 6f 08          	vmovdqu (%rax),%ymm9
    432d:	c5 7e 6f 80 c0 00 00 	vmovdqu 0xc0(%rax),%ymm8
    4334:	00 
    4335:	c5 fd 7f 9d d0 0b fd 	vmovdqa %ymm3,-0x2f430(%rbp)
    433c:	ff 
    433d:	c5 fe 6f b8 e0 00 00 	vmovdqu 0xe0(%rax),%ymm7
    4344:	00 
    4345:	c5 fe 6f b0 00 01 00 	vmovdqu 0x100(%rax),%ymm6
    434c:	00 
    434d:	c5 7d 7f bd b0 0b fd 	vmovdqa %ymm15,-0x2f450(%rbp)
    4354:	ff 
    4355:	c5 fe 6f 88 20 01 00 	vmovdqu 0x120(%rax),%ymm1
    435c:	00 
    435d:	c5 7e 6f 98 a0 00 00 	vmovdqu 0xa0(%rax),%ymm11
    4364:	00 
    4365:	c5 7d 7f ad 90 0b fd 	vmovdqa %ymm13,-0x2f470(%rbp)
    436c:	ff 
    436d:	c5 fe 6f 80 60 01 00 	vmovdqu 0x160(%rax),%ymm0
    4374:	00 
    4375:	c5 7e 6f 90 40 01 00 	vmovdqu 0x140(%rax),%ymm10
    437c:	00 
    437d:	c5 fd 7f 95 f0 0c fd 	vmovdqa %ymm2,-0x2f310(%rbp)
    4384:	ff 
    4385:	4c 8b bd 88 0b fd ff 	mov    -0x2f478(%rbp),%r15
    438c:	c5 7d 7f 8d f0 0b fd 	vmovdqa %ymm9,-0x2f410(%rbp)
    4393:	ff 
    4394:	c5 7d 7f 85 b0 0c fd 	vmovdqa %ymm8,-0x2f350(%rbp)
    439b:	ff 
    439c:	c5 fd 7f bd 90 0c fd 	vmovdqa %ymm7,-0x2f370(%rbp)
    43a3:	ff 
    43a4:	c5 fd 7f b5 70 0c fd 	vmovdqa %ymm6,-0x2f390(%rbp)
    43ab:	ff 
    43ac:	c5 fd 7f 8d 50 0c fd 	vmovdqa %ymm1,-0x2f3b0(%rbp)
    43b3:	ff 
    43b4:	c5 7d 7f 9d d0 0c fd 	vmovdqa %ymm11,-0x2f330(%rbp)
    43bb:	ff 
    43bc:	c5 fd 7f 85 10 0c fd 	vmovdqa %ymm0,-0x2f3f0(%rbp)
    43c3:	ff 
    43c4:	c5 7d 7f 95 30 0c fd 	vmovdqa %ymm10,-0x2f3d0(%rbp)
    43cb:	ff 
    43cc:	0f 1f 40 00          	nopl   0x0(%rax)
    43d0:	44 0f b6 02          	movzbl (%rdx),%r8d
    43d4:	c4 41 7e 6f 7f 20    	vmovdqu 0x20(%r15),%ymm15
    43da:	48 be 11 11 11 11 11 	movabs $0x1111111111111111,%rsi
    43e1:	11 11 11 
    43e4:	c4 41 7e 6f 5f 40    	vmovdqu 0x40(%r15),%ymm11
    43ea:	c4 41 7e 6f 47 60    	vmovdqu 0x60(%r15),%ymm8
    43f0:	45 69 f0 01 02 04 08 	imul   $0x8040201,%r8d,%r14d
    43f7:	c4 c1 15 73 d7 02    	vpsrlq $0x2,%ymm15,%ymm13
    43fd:	c4 41 15 db ce       	vpand  %ymm14,%ymm13,%ymm9
    4402:	c4 c1 2d 73 d1 20    	vpsrlq $0x20,%ymm9,%ymm10
    4408:	44 89 f3             	mov    %r14d,%ebx
    440b:	81 e3 f0 f0 f0 f0    	and    $0xf0f0f0f0,%ebx
    4411:	89 d9                	mov    %ebx,%ecx
    4413:	c1 eb 03             	shr    $0x3,%ebx
    4416:	c1 e9 04             	shr    $0x4,%ecx
    4419:	31 d9                	xor    %ebx,%ecx
    441b:	44 31 f1             	xor    %r14d,%ecx
    441e:	49 be 11 11 11 11 11 	movabs $0x1111111111111111,%r14
    4425:	11 11 11 
    4428:	41 89 c8             	mov    %ecx,%r8d
    442b:	41 89 c9             	mov    %ecx,%r9d
    442e:	0f b6 f9             	movzbl %cl,%edi
    4431:	c1 e9 18             	shr    $0x18,%ecx
    4434:	41 c1 e8 10          	shr    $0x10,%r8d
    4438:	41 c1 e9 08          	shr    $0x8,%r9d
    443c:	c4 e1 f9 6e e7       	vmovq  %rdi,%xmm4
    4441:	83 e1 0f             	and    $0xf,%ecx
    4444:	41 83 e0 0f          	and    $0xf,%r8d
    4448:	41 83 e1 0f          	and    $0xf,%r9d
    444c:	c4 e2 7d 59 cc       	vpbroadcastq %xmm4,%ymm1
    4451:	c4 c1 f9 6e e8       	vmovq  %r8,%xmm5
    4456:	c4 41 f9 6e e1       	vmovq  %r9,%xmm12
    445b:	c4 e1 f9 6e d9       	vmovq  %rcx,%xmm3
    4460:	c4 e2 7d 59 d5       	vpbroadcastq %xmm5,%ymm2
    4465:	c4 c2 7d 59 c4       	vpbroadcastq %xmm12,%ymm0
    446a:	c4 e2 7d 59 db       	vpbroadcastq %xmm3,%ymm3
    446f:	c5 cd 73 d2 20       	vpsrlq $0x20,%ymm2,%ymm6
    4474:	c5 2d f4 e2          	vpmuludq %ymm2,%ymm10,%ymm12
    4478:	c4 c1 4d f4 e1       	vpmuludq %ymm9,%ymm6,%ymm4
    447d:	c5 b5 f4 fa          	vpmuludq %ymm2,%ymm9,%ymm7
    4481:	c4 c1 35 73 d7 01    	vpsrlq $0x1,%ymm15,%ymm9
    4487:	c5 9d d4 ec          	vpaddq %ymm4,%ymm12,%ymm5
    448b:	c5 dd 73 d0 20       	vpsrlq $0x20,%ymm0,%ymm4
    4490:	c4 41 35 db e6       	vpand  %ymm14,%ymm9,%ymm12
    4495:	c5 95 73 f5 20       	vpsllq $0x20,%ymm5,%ymm13
    449a:	c4 c1 55 73 d4 20    	vpsrlq $0x20,%ymm12,%ymm5
    44a0:	c4 41 5d f4 cc       	vpmuludq %ymm12,%ymm4,%ymm9
    44a5:	c5 1d f4 d0          	vpmuludq %ymm0,%ymm12,%ymm10
    44a9:	c4 c1 45 d4 fd       	vpaddq %ymm13,%ymm7,%ymm7
    44ae:	c5 55 f4 e8          	vpmuludq %ymm0,%ymm5,%ymm13
    44b2:	c4 41 15 d4 e1       	vpaddq %ymm9,%ymm13,%ymm12
    44b7:	c4 41 05 db ee       	vpand  %ymm14,%ymm15,%ymm13
    44bc:	c4 c1 55 73 f4 20    	vpsllq $0x20,%ymm12,%ymm5
    44c2:	c4 c1 35 73 d5 20    	vpsrlq $0x20,%ymm13,%ymm9
    44c8:	c5 15 f4 e1          	vpmuludq %ymm1,%ymm13,%ymm12
    44cc:	c4 c1 05 73 d7 03    	vpsrlq $0x3,%ymm15,%ymm15
    44d2:	c5 2d d4 d5          	vpaddq %ymm5,%ymm10,%ymm10
    44d6:	c5 d5 73 d1 20       	vpsrlq $0x20,%ymm1,%ymm5
    44db:	c4 c1 45 ef fa       	vpxor  %ymm10,%ymm7,%ymm7
    44e0:	c4 41 55 f4 ed       	vpmuludq %ymm13,%ymm5,%ymm13
    44e5:	c5 35 f4 d1          	vpmuludq %ymm1,%ymm9,%ymm10
    44e9:	c4 41 2d d4 cd       	vpaddq %ymm13,%ymm10,%ymm9
    44ee:	c4 c1 2d 73 f1 20    	vpsllq $0x20,%ymm9,%ymm10
    44f4:	c4 41 05 db ce       	vpand  %ymm14,%ymm15,%ymm9
    44f9:	c4 41 1d d4 e2       	vpaddq %ymm10,%ymm12,%ymm12
    44fe:	c5 1d ef ad d0 0b fd 	vpxor  -0x2f430(%rbp),%ymm12,%ymm13
    4505:	ff 
    4506:	c4 c1 2d 73 d1 20    	vpsrlq $0x20,%ymm9,%ymm10
    450c:	c5 35 f4 e3          	vpmuludq %ymm3,%ymm9,%ymm12
    4510:	c4 c1 45 ef fd       	vpxor  %ymm13,%ymm7,%ymm7
    4515:	c5 2d f4 eb          	vpmuludq %ymm3,%ymm10,%ymm13
    4519:	c5 fd 7f bd d0 0b fd 	vmovdqa %ymm7,-0x2f430(%rbp)
    4520:	ff 
    4521:	c5 c5 73 d3 20       	vpsrlq $0x20,%ymm3,%ymm7
    4526:	c4 41 45 f4 f9       	vpmuludq %ymm9,%ymm7,%ymm15
    452b:	c4 41 15 d4 cf       	vpaddq %ymm15,%ymm13,%ymm9
    4530:	c4 c1 15 73 d3 02    	vpsrlq $0x2,%ymm11,%ymm13
    4536:	c4 41 15 db fe       	vpand  %ymm14,%ymm13,%ymm15
    453b:	c4 c1 2d 73 f1 20    	vpsllq $0x20,%ymm9,%ymm10
    4541:	c4 c1 35 73 d7 20    	vpsrlq $0x20,%ymm15,%ymm9
    4547:	c4 41 4d f4 ef       	vpmuludq %ymm15,%ymm6,%ymm13
    454c:	c4 41 1d d4 e2       	vpaddq %ymm10,%ymm12,%ymm12
    4551:	c5 35 f4 d2          	vpmuludq %ymm2,%ymm9,%ymm10
    4555:	c5 7d 7f a5 50 0b fd 	vmovdqa %ymm12,-0x2f4b0(%rbp)
    455c:	ff 
    455d:	c5 05 f4 e2          	vpmuludq %ymm2,%ymm15,%ymm12
    4561:	c4 41 2d d4 fd       	vpaddq %ymm13,%ymm10,%ymm15
    4566:	c4 c1 35 73 f7 20    	vpsllq $0x20,%ymm15,%ymm9
    456c:	c4 41 1d d4 e9       	vpaddq %ymm9,%ymm12,%ymm13
    4571:	c4 c1 1d 73 d3 01    	vpsrlq $0x1,%ymm11,%ymm12
    4577:	c4 41 1d db fe       	vpand  %ymm14,%ymm12,%ymm15
    457c:	c4 c1 2d 73 d7 20    	vpsrlq $0x20,%ymm15,%ymm10
    4582:	c4 41 5d f4 cf       	vpmuludq %ymm15,%ymm4,%ymm9
    4587:	c5 2d f4 d0          	vpmuludq %ymm0,%ymm10,%ymm10
    458b:	c5 05 f4 e0          	vpmuludq %ymm0,%ymm15,%ymm12
    458f:	c4 41 2d d4 f9       	vpaddq %ymm9,%ymm10,%ymm15
    4594:	c4 c1 2d 73 f7 20    	vpsllq $0x20,%ymm15,%ymm10
    459a:	c4 41 1d d4 e2       	vpaddq %ymm10,%ymm12,%ymm12
    459f:	c4 41 15 ef d4       	vpxor  %ymm12,%ymm13,%ymm10
    45a4:	c4 41 25 db ee       	vpand  %ymm14,%ymm11,%ymm13
    45a9:	c4 c1 35 73 d5 20    	vpsrlq $0x20,%ymm13,%ymm9
    45af:	c5 15 f4 f9          	vpmuludq %ymm1,%ymm13,%ymm15
    45b3:	c5 35 f4 e1          	vpmuludq %ymm1,%ymm9,%ymm12
    45b7:	c4 41 55 f4 ed       	vpmuludq %ymm13,%ymm5,%ymm13
    45bc:	c4 c1 25 73 d3 03    	vpsrlq $0x3,%ymm11,%ymm11
    45c2:	c4 41 1d d4 cd       	vpaddq %ymm13,%ymm12,%ymm9
    45c7:	c4 c1 1d 73 f1 20    	vpsllq $0x20,%ymm9,%ymm12
    45cd:	c4 41 05 d4 fc       	vpaddq %ymm12,%ymm15,%ymm15
    45d2:	c5 05 ef ad b0 0b fd 	vpxor  -0x2f450(%rbp),%ymm15,%ymm13
    45d9:	ff 
    45da:	c4 41 25 db fe       	vpand  %ymm14,%ymm11,%ymm15
    45df:	c4 c1 35 73 d7 20    	vpsrlq $0x20,%ymm15,%ymm9
    45e5:	c4 41 45 f4 df       	vpmuludq %ymm15,%ymm7,%ymm11
    45ea:	c4 41 2d ef d5       	vpxor  %ymm13,%ymm10,%ymm10
    45ef:	c5 35 f4 eb          	vpmuludq %ymm3,%ymm9,%ymm13
    45f3:	c5 05 f4 e3          	vpmuludq %ymm3,%ymm15,%ymm12
    45f7:	c4 41 15 d4 fb       	vpaddq %ymm11,%ymm13,%ymm15
    45fc:	c4 c1 15 73 d0 02    	vpsrlq $0x2,%ymm8,%ymm13
    4602:	c4 c1 35 73 f7 20    	vpsllq $0x20,%ymm15,%ymm9
    4608:	c4 41 15 db fe       	vpand  %ymm14,%ymm13,%ymm15
    460d:	c4 c1 25 73 d7 20    	vpsrlq $0x20,%ymm15,%ymm11
    4613:	c4 41 1d d4 e1       	vpaddq %ymm9,%ymm12,%ymm12
    4618:	c5 25 f4 ea          	vpmuludq %ymm2,%ymm11,%ymm13
    461c:	c4 41 4d f4 cf       	vpmuludq %ymm15,%ymm6,%ymm9
    4621:	c5 7d 7f a5 b0 0b fd 	vmovdqa %ymm12,-0x2f450(%rbp)
    4628:	ff 
    4629:	c5 2d ef 95 b0 0b fd 	vpxor  -0x2f450(%rbp),%ymm10,%ymm10
    4630:	ff 
    4631:	c5 05 f4 e2          	vpmuludq %ymm2,%ymm15,%ymm12
    4635:	c5 7d 7f 95 b0 0b fd 	vmovdqa %ymm10,-0x2f450(%rbp)
    463c:	ff 
    463d:	c5 7e 7f 50 40       	vmovdqu %ymm10,0x40(%rax)
    4642:	c4 41 15 d4 f9       	vpaddq %ymm9,%ymm13,%ymm15
    4647:	c4 c1 25 73 f7 20    	vpsllq $0x20,%ymm15,%ymm11
    464d:	c4 41 1d d4 eb       	vpaddq %ymm11,%ymm12,%ymm13
    4652:	c4 c1 1d 73 d0 01    	vpsrlq $0x1,%ymm8,%ymm12
    4658:	c4 41 1d db ce       	vpand  %ymm14,%ymm12,%ymm9
    465d:	c4 c1 25 73 d1 20    	vpsrlq $0x20,%ymm9,%ymm11
    4663:	c5 35 f4 f8          	vpmuludq %ymm0,%ymm9,%ymm15
    4667:	c5 25 f4 e0          	vpmuludq %ymm0,%ymm11,%ymm12
    466b:	c4 41 5d f4 c9       	vpmuludq %ymm9,%ymm4,%ymm9
    4670:	c4 41 1d d4 d9       	vpaddq %ymm9,%ymm12,%ymm11
    4675:	c4 c1 1d 73 f3 20    	vpsllq $0x20,%ymm11,%ymm12
    467b:	c4 41 3d db de       	vpand  %ymm14,%ymm8,%ymm11
    4680:	c4 c1 35 73 d3 20    	vpsrlq $0x20,%ymm11,%ymm9
    4686:	c4 c1 3d 73 d0 03    	vpsrlq $0x3,%ymm8,%ymm8
    468c:	c4 41 05 d4 fc       	vpaddq %ymm12,%ymm15,%ymm15
    4691:	c4 41 15 ef e7       	vpxor  %ymm15,%ymm13,%ymm12
    4696:	c5 25 f4 e9          	vpmuludq %ymm1,%ymm11,%ymm13
    469a:	c5 35 f4 f9          	vpmuludq %ymm1,%ymm9,%ymm15
    469e:	c4 41 55 f4 db       	vpmuludq %ymm11,%ymm5,%ymm11
    46a3:	c4 41 05 d4 cb       	vpaddq %ymm11,%ymm15,%ymm9
    46a8:	c4 c1 05 73 f1 20    	vpsllq $0x20,%ymm9,%ymm15
    46ae:	c4 41 15 d4 ef       	vpaddq %ymm15,%ymm13,%ymm13
    46b3:	c5 15 ef 9d 90 0b fd 	vpxor  -0x2f470(%rbp),%ymm13,%ymm11
    46ba:	ff 
    46bb:	c4 41 3d db fe       	vpand  %ymm14,%ymm8,%ymm15
    46c0:	c4 c1 35 73 d7 20    	vpsrlq $0x20,%ymm15,%ymm9
    46c6:	c5 05 f4 eb          	vpmuludq %ymm3,%ymm15,%ymm13
    46ca:	c4 41 1d ef e3       	vpxor  %ymm11,%ymm12,%ymm12
    46cf:	c5 35 f4 db          	vpmuludq %ymm3,%ymm9,%ymm11
    46d3:	c5 7d 7f a5 90 0b fd 	vmovdqa %ymm12,-0x2f470(%rbp)
    46da:	ff 
    46db:	c4 41 45 f4 e7       	vpmuludq %ymm15,%ymm7,%ymm12
    46e0:	c4 41 25 d4 c4       	vpaddq %ymm12,%ymm11,%ymm8
    46e5:	c4 c1 05 73 f0 20    	vpsllq $0x20,%ymm8,%ymm15
    46eb:	c4 41 15 d4 ef       	vpaddq %ymm15,%ymm13,%ymm13
    46f0:	c4 41 7e 6f bf 80 00 	vmovdqu 0x80(%r15),%ymm15
    46f7:	00 00 
    46f9:	c5 7d 7f ad 30 0b fd 	vmovdqa %ymm13,-0x2f4d0(%rbp)
    4700:	ff 
    4701:	c4 c1 35 73 d7 02    	vpsrlq $0x2,%ymm15,%ymm9
    4707:	c4 41 35 db de       	vpand  %ymm14,%ymm9,%ymm11
    470c:	c4 c1 3d 73 d3 20    	vpsrlq $0x20,%ymm11,%ymm8
    4712:	c4 41 4d f4 cb       	vpmuludq %ymm11,%ymm6,%ymm9
    4717:	c5 3d f4 ea          	vpmuludq %ymm2,%ymm8,%ymm13
    471b:	c5 25 f4 e2          	vpmuludq %ymm2,%ymm11,%ymm12
    471f:	c4 41 15 d4 d9       	vpaddq %ymm9,%ymm13,%ymm11
    4724:	c4 c1 15 73 d7 01    	vpsrlq $0x1,%ymm15,%ymm13
    472a:	c4 41 0d db ff       	vpand  %ymm15,%ymm14,%ymm15
    472f:	c4 c1 3d 73 f3 20    	vpsllq $0x20,%ymm11,%ymm8
    4735:	c4 41 1d d4 e0       	vpaddq %ymm8,%ymm12,%ymm12
    473a:	c4 41 15 db c6       	vpand  %ymm14,%ymm13,%ymm8
    473f:	c4 c1 35 73 d0 20    	vpsrlq $0x20,%ymm8,%ymm9
    4745:	c5 3d f4 d8          	vpmuludq %ymm0,%ymm8,%ymm11
    4749:	c5 35 f4 e8          	vpmuludq %ymm0,%ymm9,%ymm13
    474d:	c4 41 5d f4 c0       	vpmuludq %ymm8,%ymm4,%ymm8
    4752:	c4 41 15 d4 c8       	vpaddq %ymm8,%ymm13,%ymm9
    4757:	c4 c1 15 73 f1 20    	vpsllq $0x20,%ymm9,%ymm13
    475d:	c4 41 25 d4 dd       	vpaddq %ymm13,%ymm11,%ymm11
    4762:	c5 05 f4 e9          	vpmuludq %ymm1,%ymm15,%ymm13
    4766:	c4 41 1d ef cb       	vpxor  %ymm11,%ymm12,%ymm9
    476b:	c4 c1 1d 73 d7 20    	vpsrlq $0x20,%ymm15,%ymm12
    4771:	c5 1d f4 c1          	vpmuludq %ymm1,%ymm12,%ymm8
    4775:	c4 41 55 f4 df       	vpmuludq %ymm15,%ymm5,%ymm11
    477a:	c4 41 3d d4 fb       	vpaddq %ymm11,%ymm8,%ymm15
    477f:	c4 41 7e 6f 9f 80 00 	vmovdqu 0x80(%r15),%ymm11
    4786:	00 00 
    4788:	c4 c1 1d 73 f7 20    	vpsllq $0x20,%ymm15,%ymm12
    478e:	c4 41 15 d4 ec       	vpaddq %ymm12,%ymm13,%ymm13
    4793:	c4 c1 05 73 d3 03    	vpsrlq $0x3,%ymm11,%ymm15
    4799:	c5 15 ef 85 f0 0c fd 	vpxor  -0x2f310(%rbp),%ymm13,%ymm8
    47a0:	ff 
    47a1:	c4 41 05 db e6       	vpand  %ymm14,%ymm15,%ymm12
    47a6:	c4 41 45 f4 fc       	vpmuludq %ymm12,%ymm7,%ymm15
    47ab:	c5 1d f4 eb          	vpmuludq %ymm3,%ymm12,%ymm13
    47af:	c4 41 35 ef c8       	vpxor  %ymm8,%ymm9,%ymm9
    47b4:	c4 c1 3d 73 d4 20    	vpsrlq $0x20,%ymm12,%ymm8
    47ba:	c5 3d f4 db          	vpmuludq %ymm3,%ymm8,%ymm11
    47be:	c4 41 25 d4 e7       	vpaddq %ymm15,%ymm11,%ymm12
    47c3:	c4 41 7e 6f 1f       	vmovdqu (%r15),%ymm11
    47c8:	c4 c1 3d 73 f4 20    	vpsllq $0x20,%ymm12,%ymm8
    47ce:	c4 c1 05 73 d3 02    	vpsrlq $0x2,%ymm11,%ymm15
    47d4:	c4 41 15 d4 e8       	vpaddq %ymm8,%ymm13,%ymm13
    47d9:	c4 41 05 db e6       	vpand  %ymm14,%ymm15,%ymm12
    47de:	c4 41 35 ef cd       	vpxor  %ymm13,%ymm9,%ymm9
    47e3:	c4 c1 3d 73 d4 20    	vpsrlq $0x20,%ymm12,%ymm8
    47e9:	c4 41 4d f4 dc       	vpmuludq %ymm12,%ymm6,%ymm11
    47ee:	c5 3d f4 c2          	vpmuludq %ymm2,%ymm8,%ymm8
    47f2:	c5 1d f4 fa          	vpmuludq %ymm2,%ymm12,%ymm15
    47f6:	c4 41 3d d4 e3       	vpaddq %ymm11,%ymm8,%ymm12
    47fb:	c4 41 7e 6f 1f       	vmovdqu (%r15),%ymm11
    4800:	c4 c1 3d 73 f4 20    	vpsllq $0x20,%ymm12,%ymm8
    4806:	c4 c1 1d 73 d3 01    	vpsrlq $0x1,%ymm11,%ymm12
    480c:	c4 41 05 d4 f8       	vpaddq %ymm8,%ymm15,%ymm15
    4811:	c4 41 1d db c6       	vpand  %ymm14,%ymm12,%ymm8
    4816:	c4 c1 25 73 d0 20    	vpsrlq $0x20,%ymm8,%ymm11
    481c:	c5 3d f4 e0          	vpmuludq %ymm0,%ymm8,%ymm12
    4820:	c5 25 f4 d8          	vpmuludq %ymm0,%ymm11,%ymm11
    4824:	c4 41 5d f4 c0       	vpmuludq %ymm8,%ymm4,%ymm8
    4829:	c4 41 25 d4 d8       	vpaddq %ymm8,%ymm11,%ymm11
    482e:	c4 c1 3d 73 f3 20    	vpsllq $0x20,%ymm11,%ymm8
    4834:	c4 41 1d d4 e0       	vpaddq %ymm8,%ymm12,%ymm12
    4839:	c4 41 05 ef dc       	vpxor  %ymm12,%ymm15,%ymm11
    483e:	c4 41 0d db 3f       	vpand  (%r15),%ymm14,%ymm15
    4843:	c4 c1 3d 73 d7 20    	vpsrlq $0x20,%ymm15,%ymm8
    4849:	c5 05 f4 e1          	vpmuludq %ymm1,%ymm15,%ymm12
    484d:	c5 3d f4 c1          	vpmuludq %ymm1,%ymm8,%ymm8
    4851:	c4 41 55 f4 ff       	vpmuludq %ymm15,%ymm5,%ymm15
    4856:	c4 41 3d d4 c7       	vpaddq %ymm15,%ymm8,%ymm8
    485b:	c4 c1 05 73 f0 20    	vpsllq $0x20,%ymm8,%ymm15
    4861:	c4 41 1d d4 e7       	vpaddq %ymm15,%ymm12,%ymm12
    4866:	c4 41 7e 6f 3f       	vmovdqu (%r15),%ymm15
    486b:	c5 1d ef 85 f0 0b fd 	vpxor  -0x2f410(%rbp),%ymm12,%ymm8
    4872:	ff 
    4873:	c4 c1 1d 73 d7 03    	vpsrlq $0x3,%ymm15,%ymm12
    4879:	c4 41 25 ef d8       	vpxor  %ymm8,%ymm11,%ymm11
    487e:	c4 41 1d db c6       	vpand  %ymm14,%ymm12,%ymm8
    4883:	c4 c1 1d 73 d0 20    	vpsrlq $0x20,%ymm8,%ymm12
    4889:	c5 3d f4 fb          	vpmuludq %ymm3,%ymm8,%ymm15
    488d:	c5 1d f4 e3          	vpmuludq %ymm3,%ymm12,%ymm12
    4891:	c4 41 45 f4 c0       	vpmuludq %ymm8,%ymm7,%ymm8
    4896:	c4 41 1d d4 e0       	vpaddq %ymm8,%ymm12,%ymm12
    489b:	c4 c1 3d 73 f4 20    	vpsllq $0x20,%ymm12,%ymm8
    48a1:	c5 7d 6f a5 50 0b fd 	vmovdqa -0x2f4b0(%rbp),%ymm12
    48a8:	ff 
    48a9:	c4 41 05 d4 f8       	vpaddq %ymm8,%ymm15,%ymm15
    48ae:	c5 1d ef 85 d0 0b fd 	vpxor  -0x2f430(%rbp),%ymm12,%ymm8
    48b5:	ff 
    48b6:	c4 41 25 ef df       	vpxor  %ymm15,%ymm11,%ymm11
    48bb:	c5 7d 6f bd 30 0b fd 	vmovdqa -0x2f4d0(%rbp),%ymm15
    48c2:	ff 
    48c3:	c5 7d 7f 9d f0 0b fd 	vmovdqa %ymm11,-0x2f410(%rbp)
    48ca:	ff 
    48cb:	c5 7e 7f 18          	vmovdqu %ymm11,(%rax)
    48cf:	c5 05 ef 9d 90 0b fd 	vpxor  -0x2f470(%rbp),%ymm15,%ymm11
    48d6:	ff 
    48d7:	c5 7d 7f 85 d0 0b fd 	vmovdqa %ymm8,-0x2f430(%rbp)
    48de:	ff 
    48df:	c5 7e 7f 40 20       	vmovdqu %ymm8,0x20(%rax)
    48e4:	c5 7d 7f 9d 90 0b fd 	vmovdqa %ymm11,-0x2f470(%rbp)
    48eb:	ff 
    48ec:	c5 7e 7f 58 60       	vmovdqu %ymm11,0x60(%rax)
    48f1:	c4 41 7e 6f 97 c0 00 	vmovdqu 0xc0(%r15),%ymm10
    48f8:	00 00 
    48fa:	c4 41 7e 6f 87 00 01 	vmovdqu 0x100(%r15),%ymm8
    4901:	00 00 
    4903:	c5 7d 7f 8d f0 0c fd 	vmovdqa %ymm9,-0x2f310(%rbp)
    490a:	ff 
    490b:	c4 c1 15 73 d2 01    	vpsrlq $0x1,%ymm10,%ymm13
    4911:	c5 7e 7f 88 80 00 00 	vmovdqu %ymm9,0x80(%rax)
    4918:	00 
    4919:	c4 41 7e 6f 8f e0 00 	vmovdqu 0xe0(%r15),%ymm9
    4920:	00 00 
    4922:	c4 41 15 db de       	vpand  %ymm14,%ymm13,%ymm11
    4927:	c4 c1 1d 73 d3 20    	vpsrlq $0x20,%ymm11,%ymm12
    492d:	c5 25 f4 f8          	vpmuludq %ymm0,%ymm11,%ymm15
    4931:	c5 1d f4 e8          	vpmuludq %ymm0,%ymm12,%ymm13
    4935:	c4 41 5d f4 db       	vpmuludq %ymm11,%ymm4,%ymm11
    493a:	c4 41 15 d4 e3       	vpaddq %ymm11,%ymm13,%ymm12
    493f:	c4 c1 25 73 d2 02    	vpsrlq $0x2,%ymm10,%ymm11
    4945:	c4 41 25 db de       	vpand  %ymm14,%ymm11,%ymm11
    494a:	c4 c1 15 73 f4 20    	vpsllq $0x20,%ymm12,%ymm13
    4950:	c4 c1 1d 73 d3 20    	vpsrlq $0x20,%ymm11,%ymm12
    4956:	c4 41 05 d4 fd       	vpaddq %ymm13,%ymm15,%ymm15
    495b:	c5 1d f4 e2          	vpmuludq %ymm2,%ymm12,%ymm12
    495f:	c5 25 f4 ea          	vpmuludq %ymm2,%ymm11,%ymm13
    4963:	c4 41 4d f4 db       	vpmuludq %ymm11,%ymm6,%ymm11
    4968:	c4 41 1d d4 e3       	vpaddq %ymm11,%ymm12,%ymm12
    496d:	c4 c1 25 73 f4 20    	vpsllq $0x20,%ymm12,%ymm11
    4973:	c4 41 2d db e6       	vpand  %ymm14,%ymm10,%ymm12
    4978:	c4 41 15 d4 eb       	vpaddq %ymm11,%ymm13,%ymm13
    497d:	c4 c1 25 73 d4 20    	vpsrlq $0x20,%ymm12,%ymm11
    4983:	c5 25 f4 d9          	vpmuludq %ymm1,%ymm11,%ymm11
    4987:	c4 c1 2d 73 d2 03    	vpsrlq $0x3,%ymm10,%ymm10
    498d:	c4 41 05 ef ed       	vpxor  %ymm13,%ymm15,%ymm13
    4992:	c5 1d f4 f9          	vpmuludq %ymm1,%ymm12,%ymm15
    4996:	c4 41 55 f4 e4       	vpmuludq %ymm12,%ymm5,%ymm12
    499b:	c4 41 25 d4 dc       	vpaddq %ymm12,%ymm11,%ymm11
    49a0:	c4 c1 1d 73 f3 20    	vpsllq $0x20,%ymm11,%ymm12
    49a6:	c4 41 05 d4 fc       	vpaddq %ymm12,%ymm15,%ymm15
    49ab:	c5 05 ef 9d b0 0c fd 	vpxor  -0x2f350(%rbp),%ymm15,%ymm11
    49b2:	ff 
    49b3:	c4 41 2d db fe       	vpand  %ymm14,%ymm10,%ymm15
    49b8:	c4 41 45 f4 d7       	vpmuludq %ymm15,%ymm7,%ymm10
    49bd:	c5 05 f4 e3          	vpmuludq %ymm3,%ymm15,%ymm12
    49c1:	c4 41 15 ef eb       	vpxor  %ymm11,%ymm13,%ymm13
    49c6:	c4 c1 25 73 d7 20    	vpsrlq $0x20,%ymm15,%ymm11
    49cc:	c5 7d 7f ad b0 0c fd 	vmovdqa %ymm13,-0x2f350(%rbp)
    49d3:	ff 
    49d4:	c5 25 f4 eb          	vpmuludq %ymm3,%ymm11,%ymm13
    49d8:	c4 41 15 d4 fa       	vpaddq %ymm10,%ymm13,%ymm15
    49dd:	c4 c1 15 73 d1 01    	vpsrlq $0x1,%ymm9,%ymm13
    49e3:	c4 41 15 db d6       	vpand  %ymm14,%ymm13,%ymm10
    49e8:	c4 c1 25 73 f7 20    	vpsllq $0x20,%ymm15,%ymm11
    49ee:	c4 41 5d f4 ea       	vpmuludq %ymm10,%ymm4,%ymm13
    49f3:	c5 2d f4 f8          	vpmuludq %ymm0,%ymm10,%ymm15
    49f7:	c4 41 1d d4 e3       	vpaddq %ymm11,%ymm12,%ymm12
    49fc:	c4 c1 25 73 d2 20    	vpsrlq $0x20,%ymm10,%ymm11
    4a02:	c5 7d 7f a5 50 0b fd 	vmovdqa %ymm12,-0x2f4b0(%rbp)
    4a09:	ff 
    4a0a:	c5 25 f4 e0          	vpmuludq %ymm0,%ymm11,%ymm12
    4a0e:	c4 41 1d d4 d5       	vpaddq %ymm13,%ymm12,%ymm10
    4a13:	c4 c1 1d 73 d1 02    	vpsrlq $0x2,%ymm9,%ymm12
    4a19:	c4 41 1d db ee       	vpand  %ymm14,%ymm12,%ymm13
    4a1e:	c4 c1 25 73 f2 20    	vpsllq $0x20,%ymm10,%ymm11
    4a24:	c4 c1 2d 73 d5 20    	vpsrlq $0x20,%ymm13,%ymm10
    4a2a:	c5 15 f4 e2          	vpmuludq %ymm2,%ymm13,%ymm12
    4a2e:	c4 41 05 d4 fb       	vpaddq %ymm11,%ymm15,%ymm15
    4a33:	c4 41 4d f4 ed       	vpmuludq %ymm13,%ymm6,%ymm13
    4a38:	c5 2d f4 da          	vpmuludq %ymm2,%ymm10,%ymm11
    4a3c:	c4 41 25 d4 d5       	vpaddq %ymm13,%ymm11,%ymm10
    4a41:	c4 41 35 db ee       	vpand  %ymm14,%ymm9,%ymm13
    4a46:	c4 c1 25 73 f2 20    	vpsllq $0x20,%ymm10,%ymm11
    4a4c:	c4 c1 35 73 d1 03    	vpsrlq $0x3,%ymm9,%ymm9
    4a52:	c4 41 1d d4 e3       	vpaddq %ymm11,%ymm12,%ymm12
    4a57:	c4 c1 25 73 d5 20    	vpsrlq $0x20,%ymm13,%ymm11
    4a5d:	c4 41 05 ef d4       	vpxor  %ymm12,%ymm15,%ymm10
    4a62:	c5 15 f4 f9          	vpmuludq %ymm1,%ymm13,%ymm15
    4a66:	c5 25 f4 e1          	vpmuludq %ymm1,%ymm11,%ymm12
    4a6a:	c4 41 55 f4 ed       	vpmuludq %ymm13,%ymm5,%ymm13
    4a6f:	c4 41 1d d4 dd       	vpaddq %ymm13,%ymm12,%ymm11
    4a74:	c4 c1 1d 73 f3 20    	vpsllq $0x20,%ymm11,%ymm12
    4a7a:	c4 41 05 d4 fc       	vpaddq %ymm12,%ymm15,%ymm15
    4a7f:	c5 05 ef ad 90 0c fd 	vpxor  -0x2f370(%rbp),%ymm15,%ymm13
    4a86:	ff 
    4a87:	c4 41 35 db fe       	vpand  %ymm14,%ymm9,%ymm15
    4a8c:	c4 c1 25 73 d7 20    	vpsrlq $0x20,%ymm15,%ymm11
    4a92:	c4 41 45 f4 cf       	vpmuludq %ymm15,%ymm7,%ymm9
    4a97:	c4 41 2d ef d5       	vpxor  %ymm13,%ymm10,%ymm10
    4a9c:	c5 25 f4 eb          	vpmuludq %ymm3,%ymm11,%ymm13
    4aa0:	c5 05 f4 e3          	vpmuludq %ymm3,%ymm15,%ymm12
    4aa4:	c4 41 15 d4 f9       	vpaddq %ymm9,%ymm13,%ymm15
    4aa9:	c4 c1 15 73 d0 01    	vpsrlq $0x1,%ymm8,%ymm13
    4aaf:	c4 41 15 db ce       	vpand  %ymm14,%ymm13,%ymm9
    4ab4:	c4 c1 25 73 f7 20    	vpsllq $0x20,%ymm15,%ymm11
    4aba:	c4 41 5d f4 e9       	vpmuludq %ymm9,%ymm4,%ymm13
    4abf:	c5 35 f4 f8          	vpmuludq %ymm0,%ymm9,%ymm15
    4ac3:	c4 41 1d d4 e3       	vpaddq %ymm11,%ymm12,%ymm12
    4ac8:	c4 c1 25 73 d1 20    	vpsrlq $0x20,%ymm9,%ymm11
    4ace:	c5 7d 7f a5 90 0c fd 	vmovdqa %ymm12,-0x2f370(%rbp)
    4ad5:	ff 
    4ad6:	c5 2d ef 95 90 0c fd 	vpxor  -0x2f370(%rbp),%ymm10,%ymm10
    4add:	ff 
    4ade:	c5 25 f4 e0          	vpmuludq %ymm0,%ymm11,%ymm12
    4ae2:	c5 7d 7f 95 90 0c fd 	vmovdqa %ymm10,-0x2f370(%rbp)
    4ae9:	ff 
    4aea:	c5 7e 7f 90 e0 00 00 	vmovdqu %ymm10,0xe0(%rax)
    4af1:	00 
    4af2:	c4 41 1d d4 cd       	vpaddq %ymm13,%ymm12,%ymm9
    4af7:	c4 c1 1d 73 d0 02    	vpsrlq $0x2,%ymm8,%ymm12
    4afd:	c4 41 1d db ee       	vpand  %ymm14,%ymm12,%ymm13
    4b02:	c4 c1 25 73 f1 20    	vpsllq $0x20,%ymm9,%ymm11
    4b08:	c4 c1 35 73 d5 20    	vpsrlq $0x20,%ymm13,%ymm9
    4b0e:	c5 15 f4 e2          	vpmuludq %ymm2,%ymm13,%ymm12
    4b12:	c4 41 05 d4 fb       	vpaddq %ymm11,%ymm15,%ymm15
    4b17:	c4 41 4d f4 ed       	vpmuludq %ymm13,%ymm6,%ymm13
    4b1c:	c5 35 f4 da          	vpmuludq %ymm2,%ymm9,%ymm11
    4b20:	c4 41 25 d4 cd       	vpaddq %ymm13,%ymm11,%ymm9
    4b25:	c4 c1 25 73 f1 20    	vpsllq $0x20,%ymm9,%ymm11
    4b2b:	c4 41 1d d4 e3       	vpaddq %ymm11,%ymm12,%ymm12
    4b30:	c4 41 3d db de       	vpand  %ymm14,%ymm8,%ymm11
    4b35:	c4 c1 35 73 d3 20    	vpsrlq $0x20,%ymm11,%ymm9
    4b3b:	c5 25 f4 e9          	vpmuludq %ymm1,%ymm11,%ymm13
    4b3f:	c4 41 05 ef fc       	vpxor  %ymm12,%ymm15,%ymm15
    4b44:	c4 41 55 f4 db       	vpmuludq %ymm11,%ymm5,%ymm11
    4b49:	c5 35 f4 e1          	vpmuludq %ymm1,%ymm9,%ymm12
    4b4d:	c4 c1 3d 73 d0 03    	vpsrlq $0x3,%ymm8,%ymm8
    4b53:	c4 41 1d d4 cb       	vpaddq %ymm11,%ymm12,%ymm9
    4b58:	c4 c1 1d 73 f1 20    	vpsllq $0x20,%ymm9,%ymm12
    4b5e:	c4 41 15 d4 ec       	vpaddq %ymm12,%ymm13,%ymm13
    4b63:	c5 15 ef 9d 70 0c fd 	vpxor  -0x2f390(%rbp),%ymm13,%ymm11
    4b6a:	ff 
    4b6b:	c4 41 3d db e6       	vpand  %ymm14,%ymm8,%ymm12
    4b70:	c4 c1 35 73 d4 20    	vpsrlq $0x20,%ymm12,%ymm9
    4b76:	c5 1d f4 eb          	vpmuludq %ymm3,%ymm12,%ymm13
    4b7a:	c4 41 05 ef fb       	vpxor  %ymm11,%ymm15,%ymm15
    4b7f:	c5 35 f4 db          	vpmuludq %ymm3,%ymm9,%ymm11
    4b83:	c5 7d 7f bd 70 0c fd 	vmovdqa %ymm15,-0x2f390(%rbp)
    4b8a:	ff 
    4b8b:	c4 41 45 f4 fc       	vpmuludq %ymm12,%ymm7,%ymm15
    4b90:	c4 41 25 d4 c7       	vpaddq %ymm15,%ymm11,%ymm8
    4b95:	c4 41 7e 6f bf 20 01 	vmovdqu 0x120(%r15),%ymm15
    4b9c:	00 00 
    4b9e:	c4 c1 1d 73 f0 20    	vpsllq $0x20,%ymm8,%ymm12
    4ba4:	c4 c1 35 73 d7 01    	vpsrlq $0x1,%ymm15,%ymm9
    4baa:	c4 41 15 d4 ec       	vpaddq %ymm12,%ymm13,%ymm13
    4baf:	c4 41 35 db de       	vpand  %ymm14,%ymm9,%ymm11
    4bb4:	c5 7d 7f ad 30 0b fd 	vmovdqa %ymm13,-0x2f4d0(%rbp)
    4bbb:	ff 
    4bbc:	c4 c1 3d 73 d3 20    	vpsrlq $0x20,%ymm11,%ymm8
    4bc2:	c4 41 5d f4 cb       	vpmuludq %ymm11,%ymm4,%ymm9
    4bc7:	c5 3d f4 e8          	vpmuludq %ymm0,%ymm8,%ymm13
    4bcb:	c5 25 f4 e0          	vpmuludq %ymm0,%ymm11,%ymm12
    4bcf:	c4 41 15 d4 d9       	vpaddq %ymm9,%ymm13,%ymm11
    4bd4:	c4 c1 15 73 d7 02    	vpsrlq $0x2,%ymm15,%ymm13
    4bda:	c4 41 0d db ff       	vpand  %ymm15,%ymm14,%ymm15
    4bdf:	c4 c1 3d 73 f3 20    	vpsllq $0x20,%ymm11,%ymm8
    4be5:	c4 41 1d d4 e0       	vpaddq %ymm8,%ymm12,%ymm12
    4bea:	c4 41 15 db c6       	vpand  %ymm14,%ymm13,%ymm8
    4bef:	c4 c1 35 73 d0 20    	vpsrlq $0x20,%ymm8,%ymm9
    4bf5:	c5 3d f4 da          	vpmuludq %ymm2,%ymm8,%ymm11
    4bf9:	c5 35 f4 ea          	vpmuludq %ymm2,%ymm9,%ymm13
    4bfd:	c4 41 4d f4 c0       	vpmuludq %ymm8,%ymm6,%ymm8
    4c02:	c4 41 15 d4 c8       	vpaddq %ymm8,%ymm13,%ymm9
    4c07:	c4 c1 15 73 f1 20    	vpsllq $0x20,%ymm9,%ymm13
    4c0d:	c4 41 25 d4 dd       	vpaddq %ymm13,%ymm11,%ymm11
    4c12:	c5 05 f4 e9          	vpmuludq %ymm1,%ymm15,%ymm13
    4c16:	c4 41 1d ef cb       	vpxor  %ymm11,%ymm12,%ymm9
    4c1b:	c4 c1 1d 73 d7 20    	vpsrlq $0x20,%ymm15,%ymm12
    4c21:	c5 1d f4 c1          	vpmuludq %ymm1,%ymm12,%ymm8
    4c25:	c4 41 55 f4 df       	vpmuludq %ymm15,%ymm5,%ymm11
    4c2a:	c4 41 3d d4 fb       	vpaddq %ymm11,%ymm8,%ymm15
    4c2f:	c4 41 7e 6f 9f 20 01 	vmovdqu 0x120(%r15),%ymm11
    4c36:	00 00 
    4c38:	c4 c1 1d 73 f7 20    	vpsllq $0x20,%ymm15,%ymm12
    4c3e:	c4 41 15 d4 ec       	vpaddq %ymm12,%ymm13,%ymm13
    4c43:	c4 c1 05 73 d3 03    	vpsrlq $0x3,%ymm11,%ymm15
    4c49:	c5 15 ef 85 50 0c fd 	vpxor  -0x2f3b0(%rbp),%ymm13,%ymm8
    4c50:	ff 
    4c51:	c4 41 05 db e6       	vpand  %ymm14,%ymm15,%ymm12
    4c56:	c4 41 45 f4 fc       	vpmuludq %ymm12,%ymm7,%ymm15
    4c5b:	c5 1d f4 eb          	vpmuludq %ymm3,%ymm12,%ymm13
    4c5f:	c4 41 35 ef c8       	vpxor  %ymm8,%ymm9,%ymm9
    4c64:	c4 c1 3d 73 d4 20    	vpsrlq $0x20,%ymm12,%ymm8
    4c6a:	c5 3d f4 db          	vpmuludq %ymm3,%ymm8,%ymm11
    4c6e:	c4 41 25 d4 e7       	vpaddq %ymm15,%ymm11,%ymm12
    4c73:	c4 41 7e 6f 9f a0 00 	vmovdqu 0xa0(%r15),%ymm11
    4c7a:	00 00 
    4c7c:	c4 c1 3d 73 f4 20    	vpsllq $0x20,%ymm12,%ymm8
    4c82:	c4 c1 05 73 d3 01    	vpsrlq $0x1,%ymm11,%ymm15
    4c88:	c4 41 15 d4 e8       	vpaddq %ymm8,%ymm13,%ymm13
    4c8d:	c4 41 05 db e6       	vpand  %ymm14,%ymm15,%ymm12
    4c92:	c4 41 35 ef cd       	vpxor  %ymm13,%ymm9,%ymm9
    4c97:	c4 c1 3d 73 d4 20    	vpsrlq $0x20,%ymm12,%ymm8
    4c9d:	c4 41 5d f4 dc       	vpmuludq %ymm12,%ymm4,%ymm11
    4ca2:	c5 3d f4 c0          	vpmuludq %ymm0,%ymm8,%ymm8
    4ca6:	c5 1d f4 f8          	vpmuludq %ymm0,%ymm12,%ymm15
    4caa:	c4 41 3d d4 e3       	vpaddq %ymm11,%ymm8,%ymm12
    4caf:	c4 41 7e 6f 9f a0 00 	vmovdqu 0xa0(%r15),%ymm11
    4cb6:	00 00 
    4cb8:	c4 c1 3d 73 f4 20    	vpsllq $0x20,%ymm12,%ymm8
    4cbe:	c4 c1 1d 73 d3 02    	vpsrlq $0x2,%ymm11,%ymm12
    4cc4:	c4 41 05 d4 f8       	vpaddq %ymm8,%ymm15,%ymm15
    4cc9:	c4 41 1d db c6       	vpand  %ymm14,%ymm12,%ymm8
    4cce:	c4 c1 25 73 d0 20    	vpsrlq $0x20,%ymm8,%ymm11
    4cd4:	c5 3d f4 e2          	vpmuludq %ymm2,%ymm8,%ymm12
    4cd8:	c5 25 f4 da          	vpmuludq %ymm2,%ymm11,%ymm11
    4cdc:	c4 41 4d f4 c0       	vpmuludq %ymm8,%ymm6,%ymm8
    4ce1:	c4 41 25 d4 d8       	vpaddq %ymm8,%ymm11,%ymm11
    4ce6:	c4 c1 3d 73 f3 20    	vpsllq $0x20,%ymm11,%ymm8
    4cec:	c4 41 1d d4 e0       	vpaddq %ymm8,%ymm12,%ymm12
    4cf1:	c4 41 05 ef dc       	vpxor  %ymm12,%ymm15,%ymm11
    4cf6:	c4 41 0d db bf a0 00 	vpand  0xa0(%r15),%ymm14,%ymm15
    4cfd:	00 00 
    4cff:	c4 c1 3d 73 d7 20    	vpsrlq $0x20,%ymm15,%ymm8
    4d05:	c5 05 f4 e1          	vpmuludq %ymm1,%ymm15,%ymm12
    4d09:	c5 3d f4 c1          	vpmuludq %ymm1,%ymm8,%ymm8
    4d0d:	c4 41 55 f4 ff       	vpmuludq %ymm15,%ymm5,%ymm15
    4d12:	c4 41 3d d4 c7       	vpaddq %ymm15,%ymm8,%ymm8
    4d17:	c4 c1 05 73 f0 20    	vpsllq $0x20,%ymm8,%ymm15
    4d1d:	c4 41 1d d4 e7       	vpaddq %ymm15,%ymm12,%ymm12
    4d22:	c5 1d ef 85 d0 0c fd 	vpxor  -0x2f330(%rbp),%ymm12,%ymm8
    4d29:	ff 
    4d2a:	c4 41 7e 6f bf a0 00 	vmovdqu 0xa0(%r15),%ymm15
    4d31:	00 00 
    4d33:	c4 c1 1d 73 d7 03    	vpsrlq $0x3,%ymm15,%ymm12
    4d39:	c4 41 25 ef d8       	vpxor  %ymm8,%ymm11,%ymm11
    4d3e:	c4 41 1d db c6       	vpand  %ymm14,%ymm12,%ymm8
    4d43:	c4 c1 1d 73 d0 20    	vpsrlq $0x20,%ymm8,%ymm12
    4d49:	c5 3d f4 fb          	vpmuludq %ymm3,%ymm8,%ymm15
    4d4d:	c5 1d f4 e3          	vpmuludq %ymm3,%ymm12,%ymm12
    4d51:	c4 41 45 f4 c0       	vpmuludq %ymm8,%ymm7,%ymm8
    4d56:	c4 41 1d d4 e0       	vpaddq %ymm8,%ymm12,%ymm12
    4d5b:	c4 c1 3d 73 f4 20    	vpsllq $0x20,%ymm12,%ymm8
    4d61:	c5 7d 6f a5 50 0b fd 	vmovdqa -0x2f4b0(%rbp),%ymm12
    4d68:	ff 
    4d69:	c4 41 05 d4 f8       	vpaddq %ymm8,%ymm15,%ymm15
    4d6e:	c5 1d ef 85 b0 0c fd 	vpxor  -0x2f350(%rbp),%ymm12,%ymm8
    4d75:	ff 
    4d76:	c4 41 25 ef df       	vpxor  %ymm15,%ymm11,%ymm11
    4d7b:	c5 7d 6f bd 30 0b fd 	vmovdqa -0x2f4d0(%rbp),%ymm15
    4d82:	ff 
    4d83:	c5 7d 7f 9d d0 0c fd 	vmovdqa %ymm11,-0x2f330(%rbp)
    4d8a:	ff 
    4d8b:	c5 7e 7f 98 a0 00 00 	vmovdqu %ymm11,0xa0(%rax)
    4d92:	00 
    4d93:	c5 05 ef 9d 70 0c fd 	vpxor  -0x2f390(%rbp),%ymm15,%ymm11
    4d9a:	ff 
    4d9b:	c5 7d 7f 85 b0 0c fd 	vmovdqa %ymm8,-0x2f350(%rbp)
    4da2:	ff 
    4da3:	c5 7e 7f 80 c0 00 00 	vmovdqu %ymm8,0xc0(%rax)
    4daa:	00 
    4dab:	c5 7d 7f 9d 70 0c fd 	vmovdqa %ymm11,-0x2f390(%rbp)
    4db2:	ff 
    4db3:	4d 8b 97 80 01 00 00 	mov    0x180(%r15),%r10
    4dba:	c4 41 7e 6f 87 60 01 	vmovdqu 0x160(%r15),%ymm8
    4dc1:	00 00 
    4dc3:	c5 7e 7f 98 00 01 00 	vmovdqu %ymm11,0x100(%rax)
    4dca:	00 
    4dcb:	c4 41 7e 6f 97 40 01 	vmovdqu 0x140(%r15),%ymm10
    4dd2:	00 00 
    4dd4:	c4 c1 15 73 d0 03    	vpsrlq $0x3,%ymm8,%ymm13
    4dda:	4d 89 d5             	mov    %r10,%r13
    4ddd:	4c 89 d3             	mov    %r10,%rbx
    4de0:	4c 21 d6             	and    %r10,%rsi
    4de3:	49 d1 ed             	shr    $1,%r13
    4de6:	48 c1 eb 02          	shr    $0x2,%rbx
    4dea:	48 0f af f7          	imul   %rdi,%rsi
    4dee:	c4 41 15 db e6       	vpand  %ymm14,%ymm13,%ymm12
    4df3:	c4 c1 25 73 d4 20    	vpsrlq $0x20,%ymm12,%ymm11
    4df9:	c5 1d f4 fb          	vpmuludq %ymm3,%ymm12,%ymm15
    4dfd:	4d 21 f5             	and    %r14,%r13
    4e00:	4c 21 f3             	and    %r14,%rbx
    4e03:	c5 25 f4 eb          	vpmuludq %ymm3,%ymm11,%ymm13
    4e07:	c5 7d 7f 8d 50 0c fd 	vmovdqa %ymm9,-0x2f3b0(%rbp)
    4e0e:	ff 
    4e0f:	4d 0f af e9          	imul   %r9,%r13
    4e13:	49 c1 ea 03          	shr    $0x3,%r10
    4e17:	c5 7e 7f 88 20 01 00 	vmovdqu %ymm9,0x120(%rax)
    4e1e:	00 
    4e1f:	c4 41 45 f4 cc       	vpmuludq %ymm12,%ymm7,%ymm9
    4e24:	49 0f af d8          	imul   %r8,%rbx
    4e28:	4d 21 f2             	and    %r14,%r10
    4e2b:	4c 0f af d1          	imul   %rcx,%r10
    4e2f:	48 33 b0 80 01 00 00 	xor    0x180(%rax),%rsi
    4e36:	4c 31 ee             	xor    %r13,%rsi
    4e39:	48 31 de             	xor    %rbx,%rsi
    4e3c:	4c 31 d6             	xor    %r10,%rsi
    4e3f:	4d 8b 97 88 01 00 00 	mov    0x188(%r15),%r10
    4e46:	c4 41 15 d4 e1       	vpaddq %ymm9,%ymm13,%ymm12
    4e4b:	c4 c1 15 73 d0 02    	vpsrlq $0x2,%ymm8,%ymm13
    4e51:	48 89 b0 80 01 00 00 	mov    %rsi,0x180(%rax)
    4e58:	4c 89 f6             	mov    %r14,%rsi
    4e5b:	c4 41 15 db ce       	vpand  %ymm14,%ymm13,%ymm9
    4e60:	c4 c1 25 73 f4 20    	vpsllq $0x20,%ymm12,%ymm11
    4e66:	4c 21 d6             	and    %r10,%rsi
    4e69:	c5 35 f4 e2          	vpmuludq %ymm2,%ymm9,%ymm12
    4e6d:	48 0f af f7          	imul   %rdi,%rsi
    4e71:	c4 41 05 d4 fb       	vpaddq %ymm11,%ymm15,%ymm15
    4e76:	4c 89 d7             	mov    %r10,%rdi
    4e79:	c4 c1 25 73 d1 20    	vpsrlq $0x20,%ymm9,%ymm11
    4e7f:	c4 41 4d f4 c9       	vpmuludq %ymm9,%ymm6,%ymm9
    4e84:	48 d1 ef             	shr    $1,%rdi
    4e87:	48 33 b0 88 01 00 00 	xor    0x188(%rax),%rsi
    4e8e:	c5 25 f4 ea          	vpmuludq %ymm2,%ymm11,%ymm13
    4e92:	4c 21 f7             	and    %r14,%rdi
    4e95:	4c 0f af cf          	imul   %rdi,%r9
    4e99:	49 81 c7 90 01 00 00 	add    $0x190,%r15
    4ea0:	48 83 c2 01          	add    $0x1,%rdx
    4ea4:	4c 31 ce             	xor    %r9,%rsi
    4ea7:	4d 89 d1             	mov    %r10,%r9
    4eaa:	49 c1 ea 03          	shr    $0x3,%r10
    4eae:	c4 41 15 d4 d9       	vpaddq %ymm9,%ymm13,%ymm11
    4eb3:	c4 41 3d db ce       	vpand  %ymm14,%ymm8,%ymm9
    4eb8:	49 c1 e9 02          	shr    $0x2,%r9
    4ebc:	4d 21 f2             	and    %r14,%r10
    4ebf:	c4 c1 15 73 f3 20    	vpsllq $0x20,%ymm11,%ymm13
    4ec5:	c5 35 f4 d9          	vpmuludq %ymm1,%ymm9,%ymm11
    4ec9:	4d 21 f1             	and    %r14,%r9
    4ecc:	c4 c1 3d 73 d0 01    	vpsrlq $0x1,%ymm8,%ymm8
    4ed2:	4d 0f af c1          	imul   %r9,%r8
    4ed6:	c4 41 1d d4 e5       	vpaddq %ymm13,%ymm12,%ymm12
    4edb:	c4 c1 15 73 d1 20    	vpsrlq $0x20,%ymm9,%ymm13
    4ee1:	c4 41 55 f4 c9       	vpmuludq %ymm9,%ymm5,%ymm9
    4ee6:	c4 41 05 ef fc       	vpxor  %ymm12,%ymm15,%ymm15
    4eeb:	c5 15 f4 e1          	vpmuludq %ymm1,%ymm13,%ymm12
    4eef:	4c 0f af d1          	imul   %rcx,%r10
    4ef3:	4c 31 c6             	xor    %r8,%rsi
    4ef6:	4c 31 d6             	xor    %r10,%rsi
    4ef9:	4d 39 fc             	cmp    %r15,%r12
    4efc:	48 89 b0 88 01 00 00 	mov    %rsi,0x188(%rax)
    4f03:	c4 41 1d d4 e9       	vpaddq %ymm9,%ymm12,%ymm13
    4f08:	c4 c1 1d 73 f5 20    	vpsllq $0x20,%ymm13,%ymm12
    4f0e:	c4 41 3d db ee       	vpand  %ymm14,%ymm8,%ymm13
    4f13:	c4 41 25 d4 dc       	vpaddq %ymm12,%ymm11,%ymm11
    4f18:	c4 41 5d f4 c5       	vpmuludq %ymm13,%ymm4,%ymm8
    4f1d:	c5 25 ef 8d 10 0c fd 	vpxor  -0x2f3f0(%rbp),%ymm11,%ymm9
    4f24:	ff 
    4f25:	c4 c1 25 73 d5 20    	vpsrlq $0x20,%ymm13,%ymm11
    4f2b:	c5 15 f4 e0          	vpmuludq %ymm0,%ymm13,%ymm12
    4f2f:	c4 41 05 ef f9       	vpxor  %ymm9,%ymm15,%ymm15
    4f34:	c5 25 f4 c8          	vpmuludq %ymm0,%ymm11,%ymm9
    4f38:	c4 41 35 d4 e8       	vpaddq %ymm8,%ymm9,%ymm13
    4f3d:	c4 c1 35 73 d2 03    	vpsrlq $0x3,%ymm10,%ymm9
    4f43:	c4 c1 25 73 f5 20    	vpsllq $0x20,%ymm13,%ymm11
    4f49:	c4 41 1d d4 e3       	vpaddq %ymm11,%ymm12,%ymm12
    4f4e:	c4 41 35 db de       	vpand  %ymm14,%ymm9,%ymm11
    4f53:	c4 c1 3d 73 d3 20    	vpsrlq $0x20,%ymm11,%ymm8
    4f59:	c5 25 f4 eb          	vpmuludq %ymm3,%ymm11,%ymm13
    4f5d:	c4 41 05 ef fc       	vpxor  %ymm12,%ymm15,%ymm15
    4f62:	c5 bd f4 db          	vpmuludq %ymm3,%ymm8,%ymm3
    4f66:	c4 c1 45 f4 fb       	vpmuludq %ymm11,%ymm7,%ymm7
    4f6b:	c5 7d 7f bd 10 0c fd 	vmovdqa %ymm15,-0x2f3f0(%rbp)
    4f72:	ff 
    4f73:	c4 c1 3d 73 d2 02    	vpsrlq $0x2,%ymm10,%ymm8
    4f79:	c5 7e 7f b8 60 01 00 	vmovdqu %ymm15,0x160(%rax)
    4f80:	00 
    4f81:	c5 65 d4 cf          	vpaddq %ymm7,%ymm3,%ymm9
    4f85:	c4 c1 3d db de       	vpand  %ymm14,%ymm8,%ymm3
    4f8a:	c5 c5 73 d3 20       	vpsrlq $0x20,%ymm3,%ymm7
    4f8f:	c5 cd f4 f3          	vpmuludq %ymm3,%ymm6,%ymm6
    4f93:	c4 c1 25 73 f1 20    	vpsllq $0x20,%ymm9,%ymm11
    4f99:	c5 65 f4 ca          	vpmuludq %ymm2,%ymm3,%ymm9
    4f9d:	c5 c5 f4 d2          	vpmuludq %ymm2,%ymm7,%ymm2
    4fa1:	c4 41 15 d4 eb       	vpaddq %ymm11,%ymm13,%ymm13
    4fa6:	c5 6d d4 de          	vpaddq %ymm6,%ymm2,%ymm11
    4faa:	c4 c1 3d 73 f3 20    	vpsllq $0x20,%ymm11,%ymm8
    4fb0:	c4 c1 35 d4 d8       	vpaddq %ymm8,%ymm9,%ymm3
    4fb5:	c4 41 2d db ce       	vpand  %ymm14,%ymm10,%ymm9
    4fba:	c4 c1 6d 73 d1 20    	vpsrlq $0x20,%ymm9,%ymm2
    4fc0:	c5 b5 f4 f9          	vpmuludq %ymm1,%ymm9,%ymm7
    4fc4:	c5 15 ef eb          	vpxor  %ymm3,%ymm13,%ymm13
    4fc8:	c5 ed f4 c9          	vpmuludq %ymm1,%ymm2,%ymm1
    4fcc:	c4 c1 55 f4 e9       	vpmuludq %ymm9,%ymm5,%ymm5
    4fd1:	c4 c1 2d 73 d2 01    	vpsrlq $0x1,%ymm10,%ymm10
    4fd7:	c4 41 2d db ce       	vpand  %ymm14,%ymm10,%ymm9
    4fdc:	c4 c1 6d 73 d1 20    	vpsrlq $0x20,%ymm9,%ymm2
    4fe2:	c4 c1 5d f4 e1       	vpmuludq %ymm9,%ymm4,%ymm4
    4fe7:	c5 f5 d4 f5          	vpaddq %ymm5,%ymm1,%ymm6
    4feb:	c5 a5 73 f6 20       	vpsllq $0x20,%ymm6,%ymm11
    4ff0:	c4 41 45 d4 c3       	vpaddq %ymm11,%ymm7,%ymm8
    4ff5:	c5 b5 f4 f8          	vpmuludq %ymm0,%ymm9,%ymm7
    4ff9:	c5 bd ef 9d 30 0c fd 	vpxor  -0x2f3d0(%rbp),%ymm8,%ymm3
    5000:	ff 
    5001:	c5 ed f4 c0          	vpmuludq %ymm0,%ymm2,%ymm0
    5005:	c5 15 ef eb          	vpxor  %ymm3,%ymm13,%ymm13
    5009:	c5 fd d4 cc          	vpaddq %ymm4,%ymm0,%ymm1
    500d:	c5 d5 73 f1 20       	vpsllq $0x20,%ymm1,%ymm5
    5012:	c5 c5 d4 f5          	vpaddq %ymm5,%ymm7,%ymm6
    5016:	c5 15 ef de          	vpxor  %ymm6,%ymm13,%ymm11
    501a:	c5 7d 7f 9d 30 0c fd 	vmovdqa %ymm11,-0x2f3d0(%rbp)
    5021:	ff 
    5022:	c5 7e 7f 98 40 01 00 	vmovdqu %ymm11,0x140(%rax)
    5029:	00 
    502a:	0f 85 a0 f3 ff ff    	jne    43d0 <pqmayo_MAYO_1_opt_mayo_sign_signature+0x14c0>
    5030:	49 83 c3 4e          	add    $0x4e,%r11
    5034:	48 05 90 01 00 00    	add    $0x190,%rax
    503a:	48 39 85 70 0a fd ff 	cmp    %rax,-0x2f590(%rbp)
    5041:	0f 85 c8 f2 ff ff    	jne    430f <pqmayo_MAYO_1_opt_mayo_sign_signature+0x13ff>
    5047:	48 8b 95 68 0a fd ff 	mov    -0x2f598(%rbp),%rdx
    504e:	48 8b b5 20 0a fd ff 	mov    -0x2f5e0(%rbp),%rsi
    5055:	48 8b bd c0 0a fd ff 	mov    -0x2f540(%rbp),%rdi
    505c:	c5 f8 77             	vzeroupper
    505f:	e8 0c cb ff ff       	call   1b70 <compute_rhs.isra.0>
    5064:	48 8b bd 88 0b fd ff 	mov    -0x2f478(%rbp),%rdi
    506b:	ba 00 19 00 00       	mov    $0x1900,%edx
    5070:	31 f6                	xor    %esi,%esi
    5072:	e8 e9 c0 ff ff       	call   1160 <memset@plt>
    5077:	4c 8b 9d f0 0a fd ff 	mov    -0x2f510(%rbp),%r11
    507e:	4c 8b bd 50 0a fd ff 	mov    -0x2f5b0(%rbp),%r15
    5085:	48 b9 cd cc cc cc cc 	movabs $0xccccccccccccccd,%rcx
    508c:	cc cc 0c 
    508f:	48 ba ff ff ff ff ff 	movabs $0xffffffffffffff,%rdx
    5096:	ff ff 00 
    5099:	49 81 c3 a0 0c 00 00 	add    $0xca0,%r11
    50a0:	4c 89 f8             	mov    %r15,%rax
    50a3:	4d 89 dc             	mov    %r11,%r12
    50a6:	4d 29 fc             	sub    %r15,%r12
    50a9:	49 83 ec 28          	sub    $0x28,%r12
    50ad:	49 c1 ec 03          	shr    $0x3,%r12
    50b1:	4c 0f af e1          	imul   %rcx,%r12
    50b5:	49 83 c4 01          	add    $0x1,%r12
    50b9:	41 83 e4 07          	and    $0x7,%r12d
    50bd:	74 5d                	je     511c <pqmayo_MAYO_1_opt_mayo_sign_signature+0x220c>
    50bf:	49 83 fc 01          	cmp    $0x1,%r12
    50c3:	74 4b                	je     5110 <pqmayo_MAYO_1_opt_mayo_sign_signature+0x2200>
    50c5:	49 83 fc 02          	cmp    $0x2,%r12
    50c9:	74 3e                	je     5109 <pqmayo_MAYO_1_opt_mayo_sign_signature+0x21f9>
    50cb:	49 83 fc 03          	cmp    $0x3,%r12
    50cf:	74 31                	je     5102 <pqmayo_MAYO_1_opt_mayo_sign_signature+0x21f2>
    50d1:	49 83 fc 04          	cmp    $0x4,%r12
    50d5:	74 24                	je     50fb <pqmayo_MAYO_1_opt_mayo_sign_signature+0x21eb>
    50d7:	49 83 fc 05          	cmp    $0x5,%r12
    50db:	74 17                	je     50f4 <pqmayo_MAYO_1_opt_mayo_sign_signature+0x21e4>
    50dd:	49 83 fc 06          	cmp    $0x6,%r12
    50e1:	74 0a                	je     50ed <pqmayo_MAYO_1_opt_mayo_sign_signature+0x21dd>
    50e3:	49 21 17             	and    %rdx,(%r15)
    50e6:	48 8d 85 58 0d fd ff 	lea    -0x2f2a8(%rbp),%rax
    50ed:	48 21 10             	and    %rdx,(%rax)
    50f0:	48 83 c0 28          	add    $0x28,%rax
    50f4:	48 21 10             	and    %rdx,(%rax)
    50f7:	48 83 c0 28          	add    $0x28,%rax
    50fb:	48 21 10             	and    %rdx,(%rax)
    50fe:	48 83 c0 28          	add    $0x28,%rax
    5102:	48 21 10             	and    %rdx,(%rax)
    5105:	48 83 c0 28          	add    $0x28,%rax
    5109:	48 21 10             	and    %rdx,(%rax)
    510c:	48 83 c0 28          	add    $0x28,%rax
    5110:	48 21 10             	and    %rdx,(%rax)
    5113:	48 83 c0 28          	add    $0x28,%rax
    5117:	49 39 c3             	cmp    %rax,%r11
    511a:	74 36                	je     5152 <pqmayo_MAYO_1_opt_mayo_sign_signature+0x2242>
    511c:	48 21 10             	and    %rdx,(%rax)
    511f:	48 21 50 28          	and    %rdx,0x28(%rax)
    5123:	48 21 50 50          	and    %rdx,0x50(%rax)
    5127:	48 21 50 78          	and    %rdx,0x78(%rax)
    512b:	48 21 90 a0 00 00 00 	and    %rdx,0xa0(%rax)
    5132:	48 21 90 c8 00 00 00 	and    %rdx,0xc8(%rax)
    5139:	48 21 90 f0 00 00 00 	and    %rdx,0xf0(%rax)
    5140:	48 21 90 18 01 00 00 	and    %rdx,0x118(%rax)
    5147:	48 05 40 01 00 00    	add    $0x140,%rax
    514d:	49 39 c3             	cmp    %rax,%r11
    5150:	75 ca                	jne    511c <pqmayo_MAYO_1_opt_mayo_sign_signature+0x220c>
    5152:	4c 8b 85 f0 0a fd ff 	mov    -0x2f510(%rbp),%r8
    5159:	45 31 ed             	xor    %r13d,%r13d
    515c:	c7 85 50 0b fd ff 00 	movl   $0x0,-0x2f4b0(%rbp)
    5163:	00 00 00 
    5166:	48 c7 85 78 0b fd ff 	movq   $0xffffffffffffffff,-0x2f488(%rbp)
    516d:	ff ff ff ff 
    5171:	49 81 c0 40 01 00 00 	add    $0x140,%r8
    5178:	44 89 ad 80 0b fd ff 	mov    %r13d,-0x2f480(%rbp)
    517f:	4c 89 85 30 0b fd ff 	mov    %r8,-0x2f4d0(%rbp)
    5186:	48 c7 85 10 0c fd ff 	movq   $0x0,-0x2f3f0(%rbp)
    518d:	00 00 00 00 
    5191:	4c 8b b5 10 0c fd ff 	mov    -0x2f3f0(%rbp),%r14
    5198:	4c 8b 8d f0 0a fd ff 	mov    -0x2f510(%rbp),%r9
    519f:	48 c7 85 70 0c fd ff 	movq   $0x9,-0x2f390(%rbp)
    51a6:	09 00 00 00 
    51aa:	48 8b b5 88 0b fd ff 	mov    -0x2f478(%rbp),%rsi
    51b1:	48 8b bd 78 0a fd ff 	mov    -0x2f588(%rbp),%rdi
    51b8:	4f 8d 14 b6          	lea    (%r14,%r14,4),%r10
    51bc:	49 c1 e2 06          	shl    $0x6,%r10
    51c0:	48 89 b5 90 0c fd ff 	mov    %rsi,-0x2f370(%rbp)
    51c7:	4d 01 d1             	add    %r10,%r9
    51ca:	44 8b 95 80 0b fd ff 	mov    -0x2f480(%rbp),%r10d
    51d1:	4c 89 8d b8 0a fd ff 	mov    %r9,-0x2f548(%rbp)
    51d8:	0f 1f 84 00 00 00 00 	nopl   0x0(%rax,%rax,1)
    51df:	00 
    51e0:	4c 63 a5 50 0b fd ff 	movslq -0x2f4b0(%rbp),%r12
    51e7:	45 85 d2             	test   %r10d,%r10d
    51ea:	45 8d 7c 24 02       	lea    0x2(%r12),%r15d
    51ef:	45 8d 74 24 01       	lea    0x1(%r12),%r14d
    51f4:	4c 89 e1             	mov    %r12,%rcx
    51f7:	4c 89 a5 d0 0b fd ff 	mov    %r12,-0x2f430(%rbp)
    51fe:	41 8d 5c 24 03       	lea    0x3(%r12),%ebx
    5203:	41 8d 44 24 04       	lea    0x4(%r12),%eax
    5208:	4d 63 df             	movslq %r15d,%r11
    520b:	49 63 d6             	movslq %r14d,%rdx
    520e:	4c 63 fb             	movslq %ebx,%r15
    5211:	48 98                	cltq
    5213:	48 89 95 b0 0b fd ff 	mov    %rdx,-0x2f450(%rbp)
    521a:	4c 89 9d f0 0b fd ff 	mov    %r11,-0x2f410(%rbp)
    5221:	4c 89 bd 90 0b fd ff 	mov    %r15,-0x2f470(%rbp)
    5228:	48 89 85 30 0c fd ff 	mov    %rax,-0x2f3d0(%rbp)
    522f:	0f 8e 5b 1f 00 00    	jle    7190 <pqmayo_MAYO_1_opt_mayo_sign_signature+0x4280>
    5235:	4e 8d 0c a5 00 00 00 	lea    0x0(,%r12,4),%r9
    523c:	00 
    523d:	48 8b b5 10 0c fd ff 	mov    -0x2f3f0(%rbp),%rsi
    5244:	44 89 e3             	mov    %r12d,%ebx
    5247:	48 8b 95 b0 0b fd ff 	mov    -0x2f450(%rbp),%rdx
    524e:	4c 89 8d 20 0b fd ff 	mov    %r9,-0x2f4e0(%rbp)
    5255:	4d 01 e1             	add    %r12,%r9
    5258:	4c 8b a5 88 0b fd ff 	mov    -0x2f478(%rbp),%r12
    525f:	48 69 c9 80 fd ff ff 	imul   $0xfffffffffffffd80,%rcx,%rcx
    5266:	4a 8d 34 4e          	lea    (%rsi,%r9,2),%rsi
    526a:	83 c3 05             	add    $0x5,%ebx
    526d:	4c 8d 3c 95 00 00 00 	lea    0x0(,%rdx,4),%r15
    5274:	00 
    5275:	48 c1 e6 06          	shl    $0x6,%rsi
    5279:	4c 63 eb             	movslq %ebx,%r13
    527c:	48 8b 9d 90 0b fd ff 	mov    -0x2f470(%rbp),%rbx
    5283:	4a 8d 04 9d 00 00 00 	lea    0x0(,%r11,4),%rax
    528a:	00 
    528b:	4c 01 e6             	add    %r12,%rsi
    528e:	4c 8b a5 30 0c fd ff 	mov    -0x2f3d0(%rbp),%r12
    5295:	48 89 8d d0 0c fd ff 	mov    %rcx,-0x2f330(%rbp)
    529c:	4e 8d 1c 18          	lea    (%rax,%r11,1),%r11
    52a0:	4c 8d 04 9d 00 00 00 	lea    0x0(,%rbx,4),%r8
    52a7:	00 
    52a8:	4c 89 ad 70 0b fd ff 	mov    %r13,-0x2f490(%rbp)
    52af:	49 c1 e3 07          	shl    $0x7,%r11
    52b3:	4a 8d 0c a5 00 00 00 	lea    0x0(,%r12,4),%rcx
    52ba:	00 
    52bb:	4d 8d 0c 18          	lea    (%r8,%rbx,1),%r9
    52bf:	4c 89 85 08 0b fd ff 	mov    %r8,-0x2f4f8(%rbp)
    52c6:	4e 8d 04 21          	lea    (%rcx,%r12,1),%r8
    52ca:	4e 8d 24 ad 00 00 00 	lea    0x0(,%r13,4),%r12
    52d1:	00 
    52d2:	4c 89 bd 18 0b fd ff 	mov    %r15,-0x2f4e8(%rbp)
    52d9:	49 01 d7             	add    %rdx,%r15
    52dc:	4c 89 a5 28 0b fd ff 	mov    %r12,-0x2f4d8(%rbp)
    52e3:	4d 01 ec             	add    %r13,%r12
    52e6:	ba 40 00 00 00       	mov    $0x40,%edx
    52eb:	49 c1 e7 07          	shl    $0x7,%r15
    52ef:	4c 8b ad 90 0c fd ff 	mov    -0x2f370(%rbp),%r13
    52f6:	49 c1 e1 07          	shl    $0x7,%r9
    52fa:	49 c1 e0 07          	shl    $0x7,%r8
    52fe:	44 29 d2             	sub    %r10d,%edx
    5301:	49 c1 e4 07          	shl    $0x7,%r12
    5305:	48 89 8d 00 0b fd ff 	mov    %rcx,-0x2f500(%rbp)
    530c:	48 89 f9             	mov    %rdi,%rcx
    530f:	49 29 fd             	sub    %rdi,%r13
    5312:	48 89 85 10 0b fd ff 	mov    %rax,-0x2f4f0(%rbp)
    5319:	41 f6 c5 08          	test   $0x8,%r13b
    531d:	0f 84 91 00 00 00    	je     53b4 <pqmayo_MAYO_1_opt_mayo_sign_signature+0x24a4>
    5323:	48 8b 1f             	mov    (%rdi),%rbx
    5326:	4c 8b 6f 08          	mov    0x8(%rdi),%r13
    532a:	c4 e2 a9 f7 c3       	shlx   %r10,%rbx,%rax
    532f:	48 31 06             	xor    %rax,(%rsi)
    5332:	48 8b 85 d0 0c fd ff 	mov    -0x2f330(%rbp),%rax
    5339:	c4 c2 a9 f7 cd       	shlx   %r10,%r13,%rcx
    533e:	c4 e2 eb f7 db       	shrx   %rdx,%rbx,%rbx
    5343:	c4 42 eb f7 ed       	shrx   %rdx,%r13,%r13
    5348:	48 01 f0             	add    %rsi,%rax
    534b:	48 83 c6 08          	add    $0x8,%rsi
    534f:	4a 33 0c 38          	xor    (%rax,%r15,1),%rcx
    5353:	48 31 d9             	xor    %rbx,%rcx
    5356:	c4 e2 eb f7 5f 10    	shrx   %rdx,0x10(%rdi),%rbx
    535c:	4a 89 0c 38          	mov    %rcx,(%rax,%r15,1)
    5360:	c4 e2 a9 f7 4f 10    	shlx   %r10,0x10(%rdi),%rcx
    5366:	4a 33 0c 18          	xor    (%rax,%r11,1),%rcx
    536a:	4c 31 e9             	xor    %r13,%rcx
    536d:	c4 62 a9 f7 6f 20    	shlx   %r10,0x20(%rdi),%r13
    5373:	4a 89 0c 18          	mov    %rcx,(%rax,%r11,1)
    5377:	c4 e2 a9 f7 4f 18    	shlx   %r10,0x18(%rdi),%rcx
    537d:	4a 33 0c 08          	xor    (%rax,%r9,1),%rcx
    5381:	48 31 d9             	xor    %rbx,%rcx
    5384:	c4 e2 eb f7 5f 20    	shrx   %rdx,0x20(%rdi),%rbx
    538a:	4a 89 0c 08          	mov    %rcx,(%rax,%r9,1)
    538e:	4e 33 2c 00          	xor    (%rax,%r8,1),%r13
    5392:	c4 e2 eb f7 4f 18    	shrx   %rdx,0x18(%rdi),%rcx
    5398:	49 31 cd             	xor    %rcx,%r13
    539b:	48 8d 4f 28          	lea    0x28(%rdi),%rcx
    539f:	4e 89 2c 00          	mov    %r13,(%rax,%r8,1)
    53a3:	4a 31 1c 20          	xor    %rbx,(%rax,%r12,1)
    53a7:	48 39 8d 90 0c fd ff 	cmp    %rcx,-0x2f370(%rbp)
    53ae:	0f 84 72 01 00 00    	je     5526 <pqmayo_MAYO_1_opt_mayo_sign_signature+0x2616>
    53b4:	44 89 b5 80 0b fd ff 	mov    %r14d,-0x2f480(%rbp)
    53bb:	48 89 bd f8 0a fd ff 	mov    %rdi,-0x2f508(%rbp)
    53c2:	4c 89 bd 50 0c fd ff 	mov    %r15,-0x2f3b0(%rbp)
    53c9:	4c 89 9d f0 0c fd ff 	mov    %r11,-0x2f310(%rbp)
    53d0:	4c 89 a5 b0 0c fd ff 	mov    %r12,-0x2f350(%rbp)
    53d7:	48 8b 85 d0 0c fd ff 	mov    -0x2f330(%rbp),%rax
    53de:	4c 8b a5 50 0c fd ff 	mov    -0x2f3b0(%rbp),%r12
    53e5:	48 83 c1 50          	add    $0x50,%rcx
    53e9:	4c 8b 69 b0          	mov    -0x50(%rcx),%r13
    53ed:	48 8b 59 b8          	mov    -0x48(%rcx),%rbx
    53f1:	48 01 f0             	add    %rsi,%rax
    53f4:	4c 8b 59 c0          	mov    -0x40(%rcx),%r11
    53f8:	4c 8b 71 c8          	mov    -0x38(%rcx),%r14
    53fc:	c4 c2 a9 f7 fd       	shlx   %r10,%r13,%rdi
    5401:	48 31 3e             	xor    %rdi,(%rsi)
    5404:	c4 e2 a9 f7 fb       	shlx   %r10,%rbx,%rdi
    5409:	4a 33 3c 20          	xor    (%rax,%r12,1),%rdi
    540d:	c4 42 eb f7 ed       	shrx   %rdx,%r13,%r13
    5412:	4c 31 ef             	xor    %r13,%rdi
    5415:	4c 8b ad f0 0c fd ff 	mov    -0x2f310(%rbp),%r13
    541c:	c4 e2 eb f7 db       	shrx   %rdx,%rbx,%rbx
    5421:	4a 89 3c 20          	mov    %rdi,(%rax,%r12,1)
    5425:	c4 c2 a9 f7 fb       	shlx   %r10,%r11,%rdi
    542a:	4c 8b 79 d0          	mov    -0x30(%rcx),%r15
    542e:	c4 42 eb f7 db       	shrx   %rdx,%r11,%r11
    5433:	4a 33 3c 28          	xor    (%rax,%r13,1),%rdi
    5437:	48 31 df             	xor    %rbx,%rdi
    543a:	48 8b 9d b0 0c fd ff 	mov    -0x2f350(%rbp),%rbx
    5441:	4a 89 3c 28          	mov    %rdi,(%rax,%r13,1)
    5445:	c4 c2 a9 f7 fe       	shlx   %r10,%r14,%rdi
    544a:	4a 33 3c 08          	xor    (%rax,%r9,1),%rdi
    544e:	c4 42 a9 f7 ef       	shlx   %r10,%r15,%r13
    5453:	4c 31 df             	xor    %r11,%rdi
    5456:	c4 42 eb f7 f6       	shrx   %rdx,%r14,%r14
    545b:	c4 42 eb f7 ff       	shrx   %rdx,%r15,%r15
    5460:	4c 8b 59 f8          	mov    -0x8(%rcx),%r11
    5464:	4a 89 3c 08          	mov    %rdi,(%rax,%r9,1)
    5468:	4e 33 2c 00          	xor    (%rax,%r8,1),%r13
    546c:	4d 31 f5             	xor    %r14,%r13
    546f:	48 8b bd d0 0c fd ff 	mov    -0x2f330(%rbp),%rdi
    5476:	4c 8b 71 e0          	mov    -0x20(%rcx),%r14
    547a:	4e 89 2c 00          	mov    %r13,(%rax,%r8,1)
    547e:	4c 8b 69 e8          	mov    -0x18(%rcx),%r13
    5482:	4c 31 3c 18          	xor    %r15,(%rax,%rbx,1)
    5486:	4c 8b 79 d8          	mov    -0x28(%rcx),%r15
    548a:	48 8b 59 f0          	mov    -0x10(%rcx),%rbx
    548e:	c4 c2 a9 f7 c7       	shlx   %r10,%r15,%rax
    5493:	48 31 46 08          	xor    %rax,0x8(%rsi)
    5497:	48 8d 44 3e 08       	lea    0x8(%rsi,%rdi,1),%rax
    549c:	c4 c2 a9 f7 fe       	shlx   %r10,%r14,%rdi
    54a1:	4a 33 3c 20          	xor    (%rax,%r12,1),%rdi
    54a5:	c4 42 eb f7 ff       	shrx   %rdx,%r15,%r15
    54aa:	c4 42 eb f7 f6       	shrx   %rdx,%r14,%r14
    54af:	48 83 c6 10          	add    $0x10,%rsi
    54b3:	4c 31 ff             	xor    %r15,%rdi
    54b6:	c4 62 a9 f7 fb       	shlx   %r10,%rbx,%r15
    54bb:	c4 e2 eb f7 db       	shrx   %rdx,%rbx,%rbx
    54c0:	4a 89 3c 20          	mov    %rdi,(%rax,%r12,1)
    54c4:	48 8b bd f0 0c fd ff 	mov    -0x2f310(%rbp),%rdi
    54cb:	c4 42 a9 f7 e5       	shlx   %r10,%r13,%r12
    54d0:	c4 42 eb f7 ed       	shrx   %rdx,%r13,%r13
    54d5:	4c 33 24 38          	xor    (%rax,%rdi,1),%r12
    54d9:	4d 31 f4             	xor    %r14,%r12
    54dc:	4c 89 24 38          	mov    %r12,(%rax,%rdi,1)
    54e0:	4e 33 3c 08          	xor    (%rax,%r9,1),%r15
    54e4:	c4 42 a9 f7 e3       	shlx   %r10,%r11,%r12
    54e9:	c4 42 eb f7 db       	shrx   %rdx,%r11,%r11
    54ee:	4d 31 ef             	xor    %r13,%r15
    54f1:	48 8b bd b0 0c fd ff 	mov    -0x2f350(%rbp),%rdi
    54f8:	4e 89 3c 08          	mov    %r15,(%rax,%r9,1)
    54fc:	4e 33 24 00          	xor    (%rax,%r8,1),%r12
    5500:	49 31 dc             	xor    %rbx,%r12
    5503:	4e 89 24 00          	mov    %r12,(%rax,%r8,1)
    5507:	4c 31 1c 38          	xor    %r11,(%rax,%rdi,1)
    550b:	48 39 8d 90 0c fd ff 	cmp    %rcx,-0x2f370(%rbp)
    5512:	0f 85 bf fe ff ff    	jne    53d7 <pqmayo_MAYO_1_opt_mayo_sign_signature+0x24c7>
    5518:	44 8b b5 80 0b fd ff 	mov    -0x2f480(%rbp),%r14d
    551f:	48 8b bd f8 0a fd ff 	mov    -0x2f508(%rbp),%rdi
    5526:	44 8b 8d 70 0c fd ff 	mov    -0x2f390(%rbp),%r9d
    552d:	41 8d 72 04          	lea    0x4(%r10),%esi
    5531:	44 39 8d 10 0c fd ff 	cmp    %r9d,-0x2f3f0(%rbp)
    5538:	89 b5 80 0b fd ff    	mov    %esi,-0x2f480(%rbp)
    553e:	0f 84 58 1e 00 00    	je     739c <pqmayo_MAYO_1_opt_mayo_sign_signature+0x448c>
    5544:	48 8b 95 d0 0b fd ff 	mov    -0x2f430(%rbp),%rdx
    554b:	4c 8b 85 20 0b fd ff 	mov    -0x2f4e0(%rbp),%r8
    5552:	48 8b 8d 70 0c fd ff 	mov    -0x2f390(%rbp),%rcx
    5559:	48 8b 85 88 0b fd ff 	mov    -0x2f478(%rbp),%rax
    5560:	49 01 d0             	add    %rdx,%r8
    5563:	4c 8b bd 30 0b fd ff 	mov    -0x2f4d0(%rbp),%r15
    556a:	4c 8b a5 b0 0b fd ff 	mov    -0x2f450(%rbp),%r12
    5571:	4c 69 ea 80 fd ff ff 	imul   $0xfffffffffffffd80,%rdx,%r13
    5578:	4a 8d 34 41          	lea    (%rcx,%r8,2),%rsi
    557c:	4c 8b 9d 18 0b fd ff 	mov    -0x2f4e8(%rbp),%r11
    5583:	48 8b 95 30 0c fd ff 	mov    -0x2f3d0(%rbp),%rdx
    558a:	44 89 b5 30 0c fd ff 	mov    %r14d,-0x2f3d0(%rbp)
    5591:	48 c1 e6 06          	shl    $0x6,%rsi
    5595:	4c 8b 85 00 0b fd ff 	mov    -0x2f500(%rbp),%r8
    559c:	49 8d 8f c0 fe ff ff 	lea    -0x140(%r15),%rcx
    55a3:	4c 8b bd 28 0b fd ff 	mov    -0x2f4d8(%rbp),%r15
    55aa:	48 01 c6             	add    %rax,%rsi
    55ad:	48 8b 85 70 0b fd ff 	mov    -0x2f490(%rbp),%rax
    55b4:	48 8b 9d f0 0b fd ff 	mov    -0x2f410(%rbp),%rbx
    55bb:	4d 01 e3             	add    %r12,%r11
    55be:	4c 8b a5 10 0b fd ff 	mov    -0x2f4f0(%rbp),%r12
    55c5:	49 01 d0             	add    %rdx,%r8
    55c8:	49 c1 e3 07          	shl    $0x7,%r11
    55cc:	4c 8b 8d 90 0b fd ff 	mov    -0x2f470(%rbp),%r9
    55d3:	49 01 c7             	add    %rax,%r15
    55d6:	49 c1 e0 07          	shl    $0x7,%r8
    55da:	4c 89 ad d0 0c fd ff 	mov    %r13,-0x2f330(%rbp)
    55e1:	ba 40 00 00 00       	mov    $0x40,%edx
    55e6:	49 01 dc             	add    %rbx,%r12
    55e9:	49 c1 e7 07          	shl    $0x7,%r15
    55ed:	48 8b 9d 08 0b fd ff 	mov    -0x2f4f8(%rbp),%rbx
    55f4:	4c 89 85 f0 0c fd ff 	mov    %r8,-0x2f310(%rbp)
    55fb:	48 89 bd f0 0b fd ff 	mov    %rdi,-0x2f410(%rbp)
    5602:	49 c1 e4 07          	shl    $0x7,%r12
    5606:	44 29 d2             	sub    %r10d,%edx
    5609:	4c 89 9d 50 0c fd ff 	mov    %r11,-0x2f3b0(%rbp)
    5610:	4c 01 cb             	add    %r9,%rbx
    5613:	4c 89 bd b0 0c fd ff 	mov    %r15,-0x2f350(%rbp)
    561a:	48 c1 e3 07          	shl    $0x7,%rbx
    561e:	48 8b 85 d0 0c fd ff 	mov    -0x2f330(%rbp),%rax
    5625:	4c 8b bd 50 0c fd ff 	mov    -0x2f3b0(%rbp),%r15
    562c:	48 83 c1 50          	add    $0x50,%rcx
    5630:	4c 8b 59 b0          	mov    -0x50(%rcx),%r11
    5634:	4c 8b 49 b8          	mov    -0x48(%rcx),%r9
    5638:	48 01 f0             	add    %rsi,%rax
    563b:	4c 8b 41 c0          	mov    -0x40(%rcx),%r8
    563f:	4c 8b 69 c8          	mov    -0x38(%rcx),%r13
    5643:	c4 42 a9 f7 f3       	shlx   %r10,%r11,%r14
    5648:	c4 c2 a9 f7 f9       	shlx   %r10,%r9,%rdi
    564d:	4c 31 36             	xor    %r14,(%rsi)
    5650:	4a 33 3c 38          	xor    (%rax,%r15,1),%rdi
    5654:	c4 42 eb f7 db       	shrx   %rdx,%r11,%r11
    5659:	4c 31 df             	xor    %r11,%rdi
    565c:	c4 42 eb f7 c9       	shrx   %rdx,%r9,%r9
    5661:	4c 8b 71 d0          	mov    -0x30(%rcx),%r14
    5665:	4a 89 3c 38          	mov    %rdi,(%rax,%r15,1)
    5669:	c4 c2 a9 f7 f8       	shlx   %r10,%r8,%rdi
    566e:	4a 33 3c 20          	xor    (%rax,%r12,1),%rdi
    5672:	c4 42 a9 f7 dd       	shlx   %r10,%r13,%r11
    5677:	4c 31 cf             	xor    %r9,%rdi
    567a:	4c 8b 8d f0 0c fd ff 	mov    -0x2f310(%rbp),%r9
    5681:	c4 42 eb f7 c0       	shrx   %rdx,%r8,%r8
    5686:	c4 42 eb f7 ed       	shrx   %rdx,%r13,%r13
    568b:	4a 89 3c 20          	mov    %rdi,(%rax,%r12,1)
    568f:	4c 33 1c 18          	xor    (%rax,%rbx,1),%r11
    5693:	c4 c2 a9 f7 fe       	shlx   %r10,%r14,%rdi
    5698:	c4 42 eb f7 f6       	shrx   %rdx,%r14,%r14
    569d:	4d 31 c3             	xor    %r8,%r11
    56a0:	4c 8b 41 f8          	mov    -0x8(%rcx),%r8
    56a4:	4c 89 1c 18          	mov    %r11,(%rax,%rbx,1)
    56a8:	4c 8b 9d b0 0c fd ff 	mov    -0x2f350(%rbp),%r11
    56af:	4a 33 3c 08          	xor    (%rax,%r9,1),%rdi
    56b3:	4c 31 ef             	xor    %r13,%rdi
    56b6:	4c 8b 69 e0          	mov    -0x20(%rcx),%r13
    56ba:	4a 89 3c 08          	mov    %rdi,(%rax,%r9,1)
    56be:	48 8b bd d0 0c fd ff 	mov    -0x2f330(%rbp),%rdi
    56c5:	4e 31 34 18          	xor    %r14,(%rax,%r11,1)
    56c9:	4c 8b 71 d8          	mov    -0x28(%rcx),%r14
    56cd:	4c 8b 59 e8          	mov    -0x18(%rcx),%r11
    56d1:	4c 8b 49 f0          	mov    -0x10(%rcx),%r9
    56d5:	c4 c2 a9 f7 c6       	shlx   %r10,%r14,%rax
    56da:	48 31 46 08          	xor    %rax,0x8(%rsi)
    56de:	48 8d 44 37 08       	lea    0x8(%rdi,%rsi,1),%rax
    56e3:	c4 c2 a9 f7 fd       	shlx   %r10,%r13,%rdi
    56e8:	4a 33 3c 38          	xor    (%rax,%r15,1),%rdi
    56ec:	c4 42 eb f7 f6       	shrx   %rdx,%r14,%r14
    56f1:	c4 42 eb f7 ed       	shrx   %rdx,%r13,%r13
    56f6:	48 83 c6 10          	add    $0x10,%rsi
    56fa:	4c 31 f7             	xor    %r14,%rdi
    56fd:	4a 89 3c 38          	mov    %rdi,(%rax,%r15,1)
    5701:	c4 42 a9 f7 fb       	shlx   %r10,%r11,%r15
    5706:	4e 33 3c 20          	xor    (%rax,%r12,1),%r15
    570a:	c4 c2 a9 f7 f9       	shlx   %r10,%r9,%rdi
    570f:	4d 31 ef             	xor    %r13,%r15
    5712:	c4 42 eb f7 db       	shrx   %rdx,%r11,%r11
    5717:	c4 42 eb f7 c9       	shrx   %rdx,%r9,%r9
    571c:	4e 89 3c 20          	mov    %r15,(%rax,%r12,1)
    5720:	48 33 3c 18          	xor    (%rax,%rbx,1),%rdi
    5724:	c4 42 a9 f7 f8       	shlx   %r10,%r8,%r15
    5729:	c4 42 eb f7 c0       	shrx   %rdx,%r8,%r8
    572e:	4c 8b b5 f0 0c fd ff 	mov    -0x2f310(%rbp),%r14
    5735:	4c 31 df             	xor    %r11,%rdi
    5738:	4c 8b ad b0 0c fd ff 	mov    -0x2f350(%rbp),%r13
    573f:	48 89 3c 18          	mov    %rdi,(%rax,%rbx,1)
    5743:	4e 33 3c 30          	xor    (%rax,%r14,1),%r15
    5747:	4d 31 cf             	xor    %r9,%r15
    574a:	4e 89 3c 30          	mov    %r15,(%rax,%r14,1)
    574e:	4e 31 04 28          	xor    %r8,(%rax,%r13,1)
    5752:	48 39 8d 30 0b fd ff 	cmp    %rcx,-0x2f4d0(%rbp)
    5759:	0f 85 bf fe ff ff    	jne    561e <pqmayo_MAYO_1_opt_mayo_sign_signature+0x270e>
    575f:	44 8b 95 80 0b fd ff 	mov    -0x2f480(%rbp),%r10d
    5766:	44 8b b5 30 0c fd ff 	mov    -0x2f3d0(%rbp),%r14d
    576d:	48 8b bd f0 0b fd ff 	mov    -0x2f410(%rbp),%rdi
    5774:	41 83 fa 40          	cmp    $0x40,%r10d
    5778:	0f 84 28 1c 00 00    	je     73a6 <pqmayo_MAYO_1_opt_mayo_sign_signature+0x4496>
    577e:	48 83 ad 70 0c fd ff 	subq   $0x1,-0x2f390(%rbp)
    5785:	01 
    5786:	48 81 ef 40 01 00 00 	sub    $0x140,%rdi
    578d:	48 8b 8d 70 0c fd ff 	mov    -0x2f390(%rbp),%rcx
    5794:	48 81 ad 90 0c fd ff 	subq   $0x140,-0x2f370(%rbp)
    579b:	40 01 00 00 
    579f:	48 39 8d 78 0b fd ff 	cmp    %rcx,-0x2f488(%rbp)
    57a6:	0f 85 34 fa ff ff    	jne    51e0 <pqmayo_MAYO_1_opt_mayo_sign_signature+0x22d0>
    57ac:	44 89 95 80 0b fd ff 	mov    %r10d,-0x2f480(%rbp)
    57b3:	48 83 85 10 0c fd ff 	addq   $0x1,-0x2f3f0(%rbp)
    57ba:	01 
    57bb:	4c 8b 95 10 0c fd ff 	mov    -0x2f3f0(%rbp),%r10
    57c2:	48 83 85 78 0b fd ff 	addq   $0x1,-0x2f488(%rbp)
    57c9:	01 
    57ca:	48 81 85 30 0b fd ff 	addq   $0x140,-0x2f4d0(%rbp)
    57d1:	40 01 00 00 
    57d5:	49 83 fa 0a          	cmp    $0xa,%r10
    57d9:	0f 85 b2 f9 ff ff    	jne    5191 <pqmayo_MAYO_1_opt_mayo_sign_signature+0x2281>
    57df:	49 bc ff ff 00 00 ff 	movabs $0xffff0000ffff,%r12
    57e6:	ff 00 00 
    57e9:	bb ff ff ff ff       	mov    $0xffffffff,%ebx
    57ee:	4c 8b b5 38 0a fd ff 	mov    -0x2f5c8(%rbp),%r14
    57f5:	4c 8b 9d 28 0a fd ff 	mov    -0x2f5d8(%rbp),%r11
    57fc:	c4 41 f9 6e f4       	vmovq  %r12,%xmm14
    5801:	c4 61 f9 6e c3       	vmovq  %rbx,%xmm8
    5806:	49 bd ff 00 ff 00 ff 	movabs $0xff00ff00ff00ff,%r13
    580d:	00 ff 00 
    5810:	c4 42 7d 59 e6       	vpbroadcastq %xmm14,%ymm12
    5815:	c4 c2 7d 59 d8       	vpbroadcastq %xmm8,%ymm3
    581a:	c5 7d 7f a5 f0 0c fd 	vmovdqa %ymm12,-0x2f310(%rbp)
    5821:	ff 
    5822:	c5 fd 7f 9d 10 0c fd 	vmovdqa %ymm3,-0x2f3f0(%rbp)
    5829:	ff 
    582a:	c4 c1 7d 6f 6e a0    	vmovdqa -0x60(%r14),%ymm5
    5830:	c4 41 55 6c 6e c0    	vpunpcklqdq -0x40(%r14),%ymm5,%ymm13
    5836:	49 81 c6 00 02 00 00 	add    $0x200,%r14
    583d:	c4 41 55 6d 96 c0 fd 	vpunpckhqdq -0x240(%r14),%ymm5,%ymm10
    5844:	ff ff 
    5846:	c4 c1 7d 6f ae 20 fe 	vmovdqa -0x1e0(%r14),%ymm5
    584d:	ff ff 
    584f:	c4 c1 55 6d a6 40 fe 	vpunpckhqdq -0x1c0(%r14),%ymm5,%ymm4
    5856:	ff ff 
    5858:	c5 f8 57 c0          	vxorps %xmm0,%xmm0,%xmm0
    585c:	c4 c3 fd 00 c5 d8    	vpermq $0xd8,%ymm13,%ymm0
    5862:	c4 c1 7d 6f b6 e0 fd 	vmovdqa -0x220(%r14),%ymm6
    5869:	ff ff 
    586b:	c4 c1 55 6c 96 40 fe 	vpunpcklqdq -0x1c0(%r14),%ymm5,%ymm2
    5872:	ff ff 
    5874:	c5 f0 57 c9          	vxorps %xmm1,%xmm1,%xmm1
    5878:	c4 c3 fd 00 ca d8    	vpermq $0xd8,%ymm10,%ymm1
    587e:	c4 41 4d 6c 8e 00 fe 	vpunpcklqdq -0x200(%r14),%ymm6,%ymm9
    5885:	ff ff 
    5887:	c4 c1 4d 6d be 00 fe 	vpunpckhqdq -0x200(%r14),%ymm6,%ymm7
    588e:	ff ff 
    5890:	c5 c8 57 f6          	vxorps %xmm6,%xmm6,%xmm6
    5894:	c4 e3 fd 00 f4 d8    	vpermq $0xd8,%ymm4,%ymm6
    589a:	c4 c1 7d 6f a6 60 fe 	vmovdqa -0x1a0(%r14),%ymm4
    58a1:	ff ff 
    58a3:	c4 41 5d 6c 9e 80 fe 	vpunpcklqdq -0x180(%r14),%ymm4,%ymm11
    58aa:	ff ff 
    58ac:	c4 41 28 57 d2       	vxorps %xmm10,%xmm10,%xmm10
    58b1:	c4 63 fd 00 d2 d8    	vpermq $0xd8,%ymm2,%ymm10
    58b7:	c4 41 5d 6d b6 80 fe 	vpunpckhqdq -0x180(%r14),%ymm4,%ymm14
    58be:	ff ff 
    58c0:	c4 c1 7d 6f 96 e0 fe 	vmovdqa -0x120(%r14),%ymm2
    58c7:	ff ff 
    58c9:	c4 41 00 57 ff       	vxorps %xmm15,%xmm15,%xmm15
    58ce:	c4 43 fd 00 f9 d8    	vpermq $0xd8,%ymm9,%ymm15
    58d4:	c4 41 38 57 c0       	vxorps %xmm8,%xmm8,%xmm8
    58d9:	c4 63 fd 00 c7 d8    	vpermq $0xd8,%ymm7,%ymm8
    58df:	c4 41 7d 6f a6 a0 fe 	vmovdqa -0x160(%r14),%ymm12
    58e6:	ff ff 
    58e8:	c4 41 10 57 ed       	vxorps %xmm13,%xmm13,%xmm13
    58ed:	c4 43 fd 00 eb d8    	vpermq $0xd8,%ymm11,%ymm13
    58f3:	c5 c0 57 ff          	vxorps %xmm7,%xmm7,%xmm7
    58f7:	c4 c3 fd 00 fe d8    	vpermq $0xd8,%ymm14,%ymm7
    58fd:	c4 41 6d 6d 9e 00 ff 	vpunpckhqdq -0x100(%r14),%ymm2,%ymm11
    5904:	ff ff 
    5906:	c4 c1 1d 6c 9e c0 fe 	vpunpcklqdq -0x140(%r14),%ymm12,%ymm3
    590d:	ff ff 
    590f:	c4 41 1d 6d 8e c0 fe 	vpunpckhqdq -0x140(%r14),%ymm12,%ymm9
    5916:	ff ff 
    5918:	c4 c1 6d 6c ae 00 ff 	vpunpcklqdq -0x100(%r14),%ymm2,%ymm5
    591f:	ff ff 
    5921:	c4 41 08 57 f6       	vxorps %xmm14,%xmm14,%xmm14
    5926:	c4 43 fd 00 f3 d8    	vpermq $0xd8,%ymm11,%ymm14
    592c:	c4 c1 7d 6f 96 20 ff 	vmovdqa -0xe0(%r14),%ymm2
    5933:	ff ff 
    5935:	c5 7d 7f b5 d0 0c fd 	vmovdqa %ymm14,-0x2f330(%rbp)
    593c:	ff 
    593d:	c5 d8 57 e4          	vxorps %xmm4,%xmm4,%xmm4
    5941:	c4 e3 fd 00 e3 d8    	vpermq $0xd8,%ymm3,%ymm4
    5947:	c5 e0 57 db          	vxorps %xmm3,%xmm3,%xmm3
    594b:	c4 c3 fd 00 d9 d8    	vpermq $0xd8,%ymm9,%ymm3
    5951:	c4 41 7d 6f b6 60 ff 	vmovdqa -0xa0(%r14),%ymm14
    5958:	ff ff 
    595a:	c4 41 6d 6c 8e 40 ff 	vpunpcklqdq -0xc0(%r14),%ymm2,%ymm9
    5961:	ff ff 
    5963:	c4 41 0d 6c 5e 80    	vpunpcklqdq -0x80(%r14),%ymm14,%ymm11
    5969:	c4 41 18 57 e4       	vxorps %xmm12,%xmm12,%xmm12
    596e:	c4 63 fd 00 e5 d8    	vpermq $0xd8,%ymm5,%ymm12
    5974:	c4 c1 6d 6d ae 40 ff 	vpunpckhqdq -0xc0(%r14),%ymm2,%ymm5
    597b:	ff ff 
    597d:	c4 c1 0d 6d 56 80    	vpunpckhqdq -0x80(%r14),%ymm14,%ymm2
    5983:	c4 43 fd 00 db d8    	vpermq $0xd8,%ymm11,%ymm11
    5989:	c4 43 fd 00 c9 d8    	vpermq $0xd8,%ymm9,%ymm9
    598f:	c4 41 08 57 f6       	vxorps %xmm14,%xmm14,%xmm14
    5994:	c4 63 fd 00 f2 d8    	vpermq $0xd8,%ymm2,%ymm14
    599a:	c4 c1 7d 6c d7       	vpunpcklqdq %ymm15,%ymm0,%ymm2
    599f:	c4 c1 7d 6d c7       	vpunpckhqdq %ymm15,%ymm0,%ymm0
    59a4:	c4 41 2d 6c fd       	vpunpcklqdq %ymm13,%ymm10,%ymm15
    59a9:	c4 41 2d 6d d5       	vpunpckhqdq %ymm13,%ymm10,%ymm10
    59ae:	c4 e3 fd 00 ed d8    	vpermq $0xd8,%ymm5,%ymm5
    59b4:	c4 41 10 57 ed       	vxorps %xmm13,%xmm13,%xmm13
    59b9:	c4 43 fd 00 ea d8    	vpermq $0xd8,%ymm10,%ymm13
    59bf:	c4 41 5d 6c d4       	vpunpcklqdq %ymm12,%ymm4,%ymm10
    59c4:	c4 c1 5d 6d e4       	vpunpckhqdq %ymm12,%ymm4,%ymm4
    59c9:	c4 41 35 6c e3       	vpunpcklqdq %ymm11,%ymm9,%ymm12
    59ce:	c4 41 35 6d cb       	vpunpckhqdq %ymm11,%ymm9,%ymm9
    59d3:	c4 43 fd 00 ff d8    	vpermq $0xd8,%ymm15,%ymm15
    59d9:	c4 41 20 57 db       	vxorps %xmm11,%xmm11,%xmm11
    59de:	c4 43 fd 00 d9 d8    	vpermq $0xd8,%ymm9,%ymm11
    59e4:	c4 41 75 6c c8       	vpunpcklqdq %ymm8,%ymm1,%ymm9
    59e9:	c4 c1 75 6d c8       	vpunpckhqdq %ymm8,%ymm1,%ymm1
    59ee:	c5 4d 6c c7          	vpunpcklqdq %ymm7,%ymm6,%ymm8
    59f2:	c5 cd 6d f7          	vpunpckhqdq %ymm7,%ymm6,%ymm6
    59f6:	c4 43 fd 00 e4 d8    	vpermq $0xd8,%ymm12,%ymm12
    59fc:	c5 c0 57 ff          	vxorps %xmm7,%xmm7,%xmm7
    5a00:	c4 e3 fd 00 fe d8    	vpermq $0xd8,%ymm6,%ymm7
    5a06:	c4 e3 fd 00 d2 d8    	vpermq $0xd8,%ymm2,%ymm2
    5a0c:	c4 43 fd 00 d2 d8    	vpermq $0xd8,%ymm10,%ymm10
    5a12:	c5 fd 7f bd b0 0c fd 	vmovdqa %ymm7,-0x2f350(%rbp)
    5a19:	ff 
    5a1a:	c4 43 fd 00 c0 d8    	vpermq $0xd8,%ymm8,%ymm8
    5a20:	c4 43 fd 00 c9 d8    	vpermq $0xd8,%ymm9,%ymm9
    5a26:	c4 e3 fd 00 c0 d8    	vpermq $0xd8,%ymm0,%ymm0
    5a2c:	c5 fd 6f bd d0 0c fd 	vmovdqa -0x2f330(%rbp),%ymm7
    5a33:	ff 
    5a34:	c4 e3 fd 00 e4 d8    	vpermq $0xd8,%ymm4,%ymm4
    5a3a:	c4 e3 fd 00 c9 d8    	vpermq $0xd8,%ymm1,%ymm1
    5a40:	c5 e5 6c f7          	vpunpcklqdq %ymm7,%ymm3,%ymm6
    5a44:	c5 e5 6d df          	vpunpckhqdq %ymm7,%ymm3,%ymm3
    5a48:	c4 c1 55 6c fe       	vpunpcklqdq %ymm14,%ymm5,%ymm7
    5a4d:	c4 c1 55 6d ee       	vpunpckhqdq %ymm14,%ymm5,%ymm5
    5a52:	c4 e3 fd 00 ff d8    	vpermq $0xd8,%ymm7,%ymm7
    5a58:	c4 e3 fd 00 f6 d8    	vpermq $0xd8,%ymm6,%ymm6
    5a5e:	c4 41 08 57 f6       	vxorps %xmm14,%xmm14,%xmm14
    5a63:	c4 63 fd 00 f5 d8    	vpermq $0xd8,%ymm5,%ymm14
    5a69:	c4 c1 6d 6c ef       	vpunpcklqdq %ymm15,%ymm2,%ymm5
    5a6e:	c4 c1 6d 6d d7       	vpunpckhqdq %ymm15,%ymm2,%ymm2
    5a73:	c4 41 2d 6c fc       	vpunpcklqdq %ymm12,%ymm10,%ymm15
    5a78:	c4 41 2d 6d d4       	vpunpckhqdq %ymm12,%ymm10,%ymm10
    5a7d:	c4 e3 fd 00 db d8    	vpermq $0xd8,%ymm3,%ymm3
    5a83:	c4 41 18 57 e4       	vxorps %xmm12,%xmm12,%xmm12
    5a88:	c4 43 fd 00 e2 d8    	vpermq $0xd8,%ymm10,%ymm12
    5a8e:	c4 41 35 6c d0       	vpunpcklqdq %ymm8,%ymm9,%ymm10
    5a93:	c4 41 35 6d c8       	vpunpckhqdq %ymm8,%ymm9,%ymm9
    5a98:	c4 41 38 57 c0       	vxorps %xmm8,%xmm8,%xmm8
    5a9d:	c4 43 fd 00 c1 d8    	vpermq $0xd8,%ymm9,%ymm8
    5aa3:	c5 4d 6c cf          	vpunpcklqdq %ymm7,%ymm6,%ymm9
    5aa7:	c5 cd 6d f7          	vpunpckhqdq %ymm7,%ymm6,%ymm6
    5aab:	c5 c0 57 ff          	vxorps %xmm7,%xmm7,%xmm7
    5aaf:	c4 e3 fd 00 fe d8    	vpermq $0xd8,%ymm6,%ymm7
    5ab5:	c4 c1 7d 6c f5       	vpunpcklqdq %ymm13,%ymm0,%ymm6
    5aba:	c4 c1 7d 6d c5       	vpunpckhqdq %ymm13,%ymm0,%ymm0
    5abf:	c4 41 5d 6c eb       	vpunpcklqdq %ymm11,%ymm4,%ymm13
    5ac4:	c5 fd 7f bd d0 0c fd 	vmovdqa %ymm7,-0x2f330(%rbp)
    5acb:	ff 
    5acc:	c4 c1 5d 6d e3       	vpunpckhqdq %ymm11,%ymm4,%ymm4
    5ad1:	c4 43 fd 00 ff d8    	vpermq $0xd8,%ymm15,%ymm15
    5ad7:	c5 c0 57 ff          	vxorps %xmm7,%xmm7,%xmm7
    5adb:	c4 c3 fd 00 fd d8    	vpermq $0xd8,%ymm13,%ymm7
    5ae1:	c5 7d 6f ad b0 0c fd 	vmovdqa -0x2f350(%rbp),%ymm13
    5ae8:	ff 
    5ae9:	c4 41 20 57 db       	vxorps %xmm11,%xmm11,%xmm11
    5aee:	c4 63 fd 00 dc d8    	vpermq $0xd8,%ymm4,%ymm11
    5af4:	c4 43 fd 00 c9 d8    	vpermq $0xd8,%ymm9,%ymm9
    5afa:	c4 e3 fd 00 ed d8    	vpermq $0xd8,%ymm5,%ymm5
    5b00:	c4 43 fd 00 d2 d8    	vpermq $0xd8,%ymm10,%ymm10
    5b06:	c5 7d 7f 9d 90 0c fd 	vmovdqa %ymm11,-0x2f370(%rbp)
    5b0d:	ff 
    5b0e:	c4 41 65 6c de       	vpunpcklqdq %ymm14,%ymm3,%ymm11
    5b13:	c4 c1 75 6c e5       	vpunpcklqdq %ymm13,%ymm1,%ymm4
    5b18:	c4 43 fd 00 db d8    	vpermq $0xd8,%ymm11,%ymm11
    5b1e:	c4 e3 fd 00 d2 d8    	vpermq $0xd8,%ymm2,%ymm2
    5b24:	c4 e3 fd 00 f6 d8    	vpermq $0xd8,%ymm6,%ymm6
    5b2a:	c4 e3 fd 00 e4 d8    	vpermq $0xd8,%ymm4,%ymm4
    5b30:	c4 c1 75 6d cd       	vpunpckhqdq %ymm13,%ymm1,%ymm1
    5b35:	c4 c1 65 6d de       	vpunpckhqdq %ymm14,%ymm3,%ymm3
    5b3a:	c4 41 55 6c ef       	vpunpcklqdq %ymm15,%ymm5,%ymm13
    5b3f:	c4 c1 55 6d ef       	vpunpckhqdq %ymm15,%ymm5,%ymm5
    5b44:	c4 41 2d 6c f9       	vpunpcklqdq %ymm9,%ymm10,%ymm15
    5b49:	c4 41 2d 6d d1       	vpunpckhqdq %ymm9,%ymm10,%ymm10
    5b4e:	c4 41 08 57 f6       	vxorps %xmm14,%xmm14,%xmm14
    5b53:	c4 63 fd 00 f3 d8    	vpermq $0xd8,%ymm3,%ymm14
    5b59:	c5 4d 6c cf          	vpunpcklqdq %ymm7,%ymm6,%ymm9
    5b5d:	c5 e0 57 db          	vxorps %xmm3,%xmm3,%xmm3
    5b61:	c4 c3 fd 00 dd d8    	vpermq $0xd8,%ymm13,%ymm3
    5b67:	c5 cd 6d f7          	vpunpckhqdq %ymm7,%ymm6,%ymm6
    5b6b:	c4 41 10 57 ed       	vxorps %xmm13,%xmm13,%xmm13
    5b70:	c4 43 fd 00 ef d8    	vpermq $0xd8,%ymm15,%ymm13
    5b76:	c4 c1 5d 6c fb       	vpunpcklqdq %ymm11,%ymm4,%ymm7
    5b7b:	c4 41 00 57 ff       	vxorps %xmm15,%xmm15,%xmm15
    5b80:	c4 43 fd 00 fa d8    	vpermq $0xd8,%ymm10,%ymm15
    5b86:	c4 c1 5d 6d e3       	vpunpckhqdq %ymm11,%ymm4,%ymm4
    5b8b:	c4 41 6d 6c d4       	vpunpcklqdq %ymm12,%ymm2,%ymm10
    5b90:	c4 c1 6d 6d d4       	vpunpckhqdq %ymm12,%ymm2,%ymm2
    5b95:	c5 7d 6f a5 d0 0c fd 	vmovdqa -0x2f330(%rbp),%ymm12
    5b9c:	ff 
    5b9d:	c4 41 20 57 db       	vxorps %xmm11,%xmm11,%xmm11
    5ba2:	c4 63 fd 00 dc d8    	vpermq $0xd8,%ymm4,%ymm11
    5ba8:	c4 e3 fd 00 c9 d8    	vpermq $0xd8,%ymm1,%ymm1
    5bae:	c5 d8 57 e4          	vxorps %xmm4,%xmm4,%xmm4
    5bb2:	c4 c3 fd 00 e2 d8    	vpermq $0xd8,%ymm10,%ymm4
    5bb8:	c5 7d 7f 9d b0 0c fd 	vmovdqa %ymm11,-0x2f350(%rbp)
    5bbf:	ff 
    5bc0:	c4 41 3d 6c dc       	vpunpcklqdq %ymm12,%ymm8,%ymm11
    5bc5:	c4 41 3d 6d c4       	vpunpckhqdq %ymm12,%ymm8,%ymm8
    5bca:	c4 e3 fd 00 c0 d8    	vpermq $0xd8,%ymm0,%ymm0
    5bd0:	c4 41 18 57 e4       	vxorps %xmm12,%xmm12,%xmm12
    5bd5:	c4 43 fd 00 e0 d8    	vpermq $0xd8,%ymm8,%ymm12
    5bdb:	c4 41 28 57 d2       	vxorps %xmm10,%xmm10,%xmm10
    5be0:	c4 43 fd 00 d3 d8    	vpermq $0xd8,%ymm11,%ymm10
    5be6:	c4 43 fd 00 c9 d8    	vpermq $0xd8,%ymm9,%ymm9
    5bec:	c5 7d 7f a5 d0 0c fd 	vmovdqa %ymm12,-0x2f330(%rbp)
    5bf3:	ff 
    5bf4:	c4 41 75 6c e6       	vpunpcklqdq %ymm14,%ymm1,%ymm12
    5bf9:	c4 c1 75 6d ce       	vpunpckhqdq %ymm14,%ymm1,%ymm1
    5bfe:	c4 e3 fd 00 ff d8    	vpermq $0xd8,%ymm7,%ymm7
    5c04:	c5 7d 6f 9d 90 0c fd 	vmovdqa -0x2f370(%rbp),%ymm11
    5c0b:	ff 
    5c0c:	c4 41 08 57 f6       	vxorps %xmm14,%xmm14,%xmm14
    5c11:	c4 63 fd 00 f1 d8    	vpermq $0xd8,%ymm1,%ymm14
    5c17:	c4 e3 fd 00 ed d8    	vpermq $0xd8,%ymm5,%ymm5
    5c1d:	c4 e3 fd 00 f6 d8    	vpermq $0xd8,%ymm6,%ymm6
    5c23:	c4 e3 fd 00 d2 d8    	vpermq $0xd8,%ymm2,%ymm2
    5c29:	c4 41 7d 6c c3       	vpunpcklqdq %ymm11,%ymm0,%ymm8
    5c2e:	c4 c1 7d 6d c3       	vpunpckhqdq %ymm11,%ymm0,%ymm0
    5c33:	c4 41 20 57 db       	vxorps %xmm11,%xmm11,%xmm11
    5c38:	c4 43 fd 00 dc d8    	vpermq $0xd8,%ymm12,%ymm11
    5c3e:	c5 9d 73 d3 04       	vpsrlq $0x4,%ymm3,%ymm12
    5c43:	c4 43 fd 00 c0 d8    	vpermq $0xd8,%ymm8,%ymm8
    5c49:	c4 e3 fd 00 c0 d8    	vpermq $0xd8,%ymm0,%ymm0
    5c4f:	c4 c1 1d ef cd       	vpxor  %ymm13,%ymm12,%ymm1
    5c54:	c5 f5 db 0d 24 05 01 	vpand  0x10524(%rip),%ymm1,%ymm1        # 16180 <_IO_stdin_used+0x180>
    5c5b:	00 
    5c5c:	c5 9d 73 f1 04       	vpsllq $0x4,%ymm1,%ymm12
    5c61:	c5 1d ef e3          	vpxor  %ymm3,%ymm12,%ymm12
    5c65:	c4 c1 75 ef dd       	vpxor  %ymm13,%ymm1,%ymm3
    5c6a:	c4 c1 15 73 d1 04    	vpsrlq $0x4,%ymm9,%ymm13
    5c70:	c5 95 ef cf          	vpxor  %ymm7,%ymm13,%ymm1
    5c74:	c5 f5 db 0d 04 05 01 	vpand  0x10504(%rip),%ymm1,%ymm1        # 16180 <_IO_stdin_used+0x180>
    5c7b:	00 
    5c7c:	c5 95 73 f1 04       	vpsllq $0x4,%ymm1,%ymm13
    5c81:	c4 41 15 ef e9       	vpxor  %ymm9,%ymm13,%ymm13
    5c86:	c5 75 ef cf          	vpxor  %ymm7,%ymm1,%ymm9
    5c8a:	c5 c5 73 d4 04       	vpsrlq $0x4,%ymm4,%ymm7
    5c8f:	c5 7d 7f 8d 90 0c fd 	vmovdqa %ymm9,-0x2f370(%rbp)
    5c96:	ff 
    5c97:	c4 c1 45 ef ca       	vpxor  %ymm10,%ymm7,%ymm1
    5c9c:	c5 75 db 0d dc 04 01 	vpand  0x104dc(%rip),%ymm1,%ymm9        # 16180 <_IO_stdin_used+0x180>
    5ca3:	00 
    5ca4:	c4 c1 45 73 f1 04    	vpsllq $0x4,%ymm9,%ymm7
    5caa:	c5 c5 ef fc          	vpxor  %ymm4,%ymm7,%ymm7
    5cae:	c4 c1 35 ef e2       	vpxor  %ymm10,%ymm9,%ymm4
    5cb3:	c4 c1 2d 73 d0 04    	vpsrlq $0x4,%ymm8,%ymm10
    5cb9:	c4 c1 2d ef cb       	vpxor  %ymm11,%ymm10,%ymm1
    5cbe:	c5 f5 db 0d ba 04 01 	vpand  0x104ba(%rip),%ymm1,%ymm1        # 16180 <_IO_stdin_used+0x180>
    5cc5:	00 
    5cc6:	c5 b5 73 f1 04       	vpsllq $0x4,%ymm1,%ymm9
    5ccb:	c4 41 75 ef db       	vpxor  %ymm11,%ymm1,%ymm11
    5cd0:	c4 41 35 ef d0       	vpxor  %ymm8,%ymm9,%ymm10
    5cd5:	c5 bd 73 d5 04       	vpsrlq $0x4,%ymm5,%ymm8
    5cda:	c4 c1 3d ef cf       	vpxor  %ymm15,%ymm8,%ymm1
    5cdf:	c5 75 db 0d 99 04 01 	vpand  0x10499(%rip),%ymm1,%ymm9        # 16180 <_IO_stdin_used+0x180>
    5ce6:	00 
    5ce7:	c5 f5 73 d6 04       	vpsrlq $0x4,%ymm6,%ymm1
    5cec:	c4 c1 3d 73 f1 04    	vpsllq $0x4,%ymm9,%ymm8
    5cf2:	c5 3d ef c5          	vpxor  %ymm5,%ymm8,%ymm8
    5cf6:	c4 c1 35 ef ef       	vpxor  %ymm15,%ymm9,%ymm5
    5cfb:	c5 7d 6f bd b0 0c fd 	vmovdqa -0x2f350(%rbp),%ymm15
    5d02:	ff 
    5d03:	c4 41 75 ef cf       	vpxor  %ymm15,%ymm1,%ymm9
    5d08:	c5 b5 db 0d 70 04 01 	vpand  0x10470(%rip),%ymm9,%ymm1        # 16180 <_IO_stdin_used+0x180>
    5d0f:	00 
    5d10:	c5 b5 73 f1 04       	vpsllq $0x4,%ymm1,%ymm9
    5d15:	c4 41 75 ef ff       	vpxor  %ymm15,%ymm1,%ymm15
    5d1a:	c5 b5 ef f6          	vpxor  %ymm6,%ymm9,%ymm6
    5d1e:	c5 7d 6f 8d d0 0c fd 	vmovdqa -0x2f330(%rbp),%ymm9
    5d25:	ff 
    5d26:	c5 f5 73 d2 04       	vpsrlq $0x4,%ymm2,%ymm1
    5d2b:	c5 7d 7f bd b0 0c fd 	vmovdqa %ymm15,-0x2f350(%rbp)
    5d32:	ff 
    5d33:	c5 fd 7f b5 50 0c fd 	vmovdqa %ymm6,-0x2f3b0(%rbp)
    5d3a:	ff 
    5d3b:	c4 c1 75 ef f1       	vpxor  %ymm9,%ymm1,%ymm6
    5d40:	c5 4d db 3d 38 04 01 	vpand  0x10438(%rip),%ymm6,%ymm15        # 16180 <_IO_stdin_used+0x180>
    5d47:	00 
    5d48:	c4 c1 75 73 f7 04    	vpsllq $0x4,%ymm15,%ymm1
    5d4e:	c5 f5 ef f2          	vpxor  %ymm2,%ymm1,%ymm6
    5d52:	c4 c1 05 ef d1       	vpxor  %ymm9,%ymm15,%ymm2
    5d57:	c5 b5 73 d0 04       	vpsrlq $0x4,%ymm0,%ymm9
    5d5c:	c4 41 35 ef fe       	vpxor  %ymm14,%ymm9,%ymm15
    5d61:	c5 85 db 0d 17 04 01 	vpand  0x10417(%rip),%ymm15,%ymm1        # 16180 <_IO_stdin_used+0x180>
    5d68:	00 
    5d69:	c4 c1 05 73 d4 08    	vpsrlq $0x8,%ymm12,%ymm15
    5d6f:	c5 b5 73 f1 04       	vpsllq $0x4,%ymm1,%ymm9
    5d74:	c4 41 75 ef f6       	vpxor  %ymm14,%ymm1,%ymm14
    5d79:	c4 c1 05 ef cd       	vpxor  %ymm13,%ymm15,%ymm1
    5d7e:	c5 7d 6f bd 90 0c fd 	vmovdqa -0x2f370(%rbp),%ymm15
    5d85:	ff 
    5d86:	c5 f5 db 0d 12 04 01 	vpand  0x10412(%rip),%ymm1,%ymm1        # 161a0 <_IO_stdin_used+0x1a0>
    5d8d:	00 
    5d8e:	c5 b5 ef c0          	vpxor  %ymm0,%ymm9,%ymm0
    5d92:	c5 b5 73 d3 08       	vpsrlq $0x8,%ymm3,%ymm9
    5d97:	c5 fd 7f 85 d0 0c fd 	vmovdqa %ymm0,-0x2f330(%rbp)
    5d9e:	ff 
    5d9f:	c4 c1 35 ef c7       	vpxor  %ymm15,%ymm9,%ymm0
    5da4:	c5 fd db 05 f4 03 01 	vpand  0x103f4(%rip),%ymm0,%ymm0        # 161a0 <_IO_stdin_used+0x1a0>
    5dab:	00 
    5dac:	c5 b5 73 f1 08       	vpsllq $0x8,%ymm1,%ymm9
    5db1:	c4 c1 75 ef cd       	vpxor  %ymm13,%ymm1,%ymm1
    5db6:	c4 41 35 ef cc       	vpxor  %ymm12,%ymm9,%ymm9
    5dbb:	c5 9d 73 f0 08       	vpsllq $0x8,%ymm0,%ymm12
    5dc0:	c4 c1 7d ef c7       	vpxor  %ymm15,%ymm0,%ymm0
    5dc5:	c5 1d ef e3          	vpxor  %ymm3,%ymm12,%ymm12
    5dc9:	c5 85 73 d4 08       	vpsrlq $0x8,%ymm4,%ymm15
    5dce:	c5 e5 73 d7 08       	vpsrlq $0x8,%ymm7,%ymm3
    5dd3:	c4 41 65 ef ea       	vpxor  %ymm10,%ymm3,%ymm13
    5dd8:	c4 c1 05 ef db       	vpxor  %ymm11,%ymm15,%ymm3
    5ddd:	c5 15 db 2d bb 03 01 	vpand  0x103bb(%rip),%ymm13,%ymm13        # 161a0 <_IO_stdin_used+0x1a0>
    5de4:	00 
    5de5:	c5 e5 db 1d b3 03 01 	vpand  0x103b3(%rip),%ymm3,%ymm3        # 161a0 <_IO_stdin_used+0x1a0>
    5dec:	00 
    5ded:	c4 c1 05 73 f5 08    	vpsllq $0x8,%ymm13,%ymm15
    5df3:	c4 41 15 ef ea       	vpxor  %ymm10,%ymm13,%ymm13
    5df8:	c4 41 65 ef d3       	vpxor  %ymm11,%ymm3,%ymm10
    5dfd:	c4 c1 25 73 d0 08    	vpsrlq $0x8,%ymm8,%ymm11
    5e03:	c5 05 ef ff          	vpxor  %ymm7,%ymm15,%ymm15
    5e07:	c5 7d 7f 95 90 0c fd 	vmovdqa %ymm10,-0x2f370(%rbp)
    5e0e:	ff 
    5e0f:	c5 7d 6f 95 50 0c fd 	vmovdqa -0x2f3b0(%rbp),%ymm10
    5e16:	ff 
    5e17:	c5 c5 73 f3 08       	vpsllq $0x8,%ymm3,%ymm7
    5e1c:	c5 c5 ef e4          	vpxor  %ymm4,%ymm7,%ymm4
    5e20:	c5 c5 73 d5 08       	vpsrlq $0x8,%ymm5,%ymm7
    5e25:	c4 c1 25 ef da       	vpxor  %ymm10,%ymm11,%ymm3
    5e2a:	c5 7d 6f 9d b0 0c fd 	vmovdqa -0x2f350(%rbp),%ymm11
    5e31:	ff 
    5e32:	c5 fd 7f a5 70 0c fd 	vmovdqa %ymm4,-0x2f390(%rbp)
    5e39:	ff 
    5e3a:	c5 e5 db 25 5e 03 01 	vpand  0x1035e(%rip),%ymm3,%ymm4        # 161a0 <_IO_stdin_used+0x1a0>
    5e41:	00 
    5e42:	c4 c1 45 ef db       	vpxor  %ymm11,%ymm7,%ymm3
    5e47:	c5 e5 db 1d 51 03 01 	vpand  0x10351(%rip),%ymm3,%ymm3        # 161a0 <_IO_stdin_used+0x1a0>
    5e4e:	00 
    5e4f:	c5 c5 73 f4 08       	vpsllq $0x8,%ymm4,%ymm7
    5e54:	c4 c1 5d ef e2       	vpxor  %ymm10,%ymm4,%ymm4
    5e59:	c4 c1 45 ef f8       	vpxor  %ymm8,%ymm7,%ymm7
    5e5e:	c5 bd 73 f3 08       	vpsllq $0x8,%ymm3,%ymm8
    5e63:	c4 c1 65 ef db       	vpxor  %ymm11,%ymm3,%ymm3
    5e68:	c5 3d ef c5          	vpxor  %ymm5,%ymm8,%ymm8
    5e6c:	c5 a5 73 d2 08       	vpsrlq $0x8,%ymm2,%ymm11
    5e71:	c5 d5 73 d6 08       	vpsrlq $0x8,%ymm6,%ymm5
    5e76:	c5 55 ef 95 d0 0c fd 	vpxor  -0x2f330(%rbp),%ymm5,%ymm10
    5e7d:	ff 
    5e7e:	c5 2d db 15 1a 03 01 	vpand  0x1031a(%rip),%ymm10,%ymm10        # 161a0 <_IO_stdin_used+0x1a0>
    5e85:	00 
    5e86:	c4 c1 25 ef ee       	vpxor  %ymm14,%ymm11,%ymm5
    5e8b:	c5 d5 db 2d 0d 03 01 	vpand  0x1030d(%rip),%ymm5,%ymm5        # 161a0 <_IO_stdin_used+0x1a0>
    5e92:	00 
    5e93:	c4 c1 25 73 f2 08    	vpsllq $0x8,%ymm10,%ymm11
    5e99:	c5 25 ef de          	vpxor  %ymm6,%ymm11,%ymm11
    5e9d:	c5 cd 73 f5 08       	vpsllq $0x8,%ymm5,%ymm6
    5ea2:	c4 41 55 ef f6       	vpxor  %ymm14,%ymm5,%ymm14
    5ea7:	c5 cd ef f2          	vpxor  %ymm2,%ymm6,%ymm6
    5eab:	c5 ad ef 95 d0 0c fd 	vpxor  -0x2f330(%rbp),%ymm10,%ymm2
    5eb2:	ff 
    5eb3:	c5 7d 7f b5 d0 0c fd 	vmovdqa %ymm14,-0x2f330(%rbp)
    5eba:	ff 
    5ebb:	c4 c1 2d 73 d1 10    	vpsrlq $0x10,%ymm9,%ymm10
    5ec1:	c5 fd 7f 95 b0 0c fd 	vmovdqa %ymm2,-0x2f350(%rbp)
    5ec8:	ff 
    5ec9:	c5 7d 6f b5 f0 0c fd 	vmovdqa -0x2f310(%rbp),%ymm14
    5ed0:	ff 
    5ed1:	c4 c1 2d ef ef       	vpxor  %ymm15,%ymm10,%ymm5
    5ed6:	c5 ad 73 d7 10       	vpsrlq $0x10,%ymm7,%ymm10
    5edb:	c4 c1 55 db d6       	vpand  %ymm14,%ymm5,%ymm2
    5ee0:	c4 c1 2d ef eb       	vpxor  %ymm11,%ymm10,%ymm5
    5ee5:	c4 c1 55 db ee       	vpand  %ymm14,%ymm5,%ymm5
    5eea:	c5 8d 73 f2 10       	vpsllq $0x10,%ymm2,%ymm14
    5eef:	c4 c1 6d ef d7       	vpxor  %ymm15,%ymm2,%ymm2
    5ef4:	c5 ad 73 f5 10       	vpsllq $0x10,%ymm5,%ymm10
    5ef9:	c4 41 0d ef c9       	vpxor  %ymm9,%ymm14,%ymm9
    5efe:	c4 41 55 ef fb       	vpxor  %ymm11,%ymm5,%ymm15
    5f03:	c5 2d ef f7          	vpxor  %ymm7,%ymm10,%ymm14
    5f07:	c5 7d 6f 95 f0 0c fd 	vmovdqa -0x2f310(%rbp),%ymm10
    5f0e:	ff 
    5f0f:	c4 c1 45 73 d4 10    	vpsrlq $0x10,%ymm12,%ymm7
    5f15:	c5 45 ef 9d 70 0c fd 	vpxor  -0x2f390(%rbp),%ymm7,%ymm11
    5f1c:	ff 
    5f1d:	c4 c1 45 73 d0 10    	vpsrlq $0x10,%ymm8,%ymm7
    5f23:	c4 c1 25 db ea       	vpand  %ymm10,%ymm11,%ymm5
    5f28:	c5 45 ef de          	vpxor  %ymm6,%ymm7,%ymm11
    5f2c:	c4 c1 25 db fa       	vpand  %ymm10,%ymm11,%ymm7
    5f31:	c5 ad 73 f5 10       	vpsllq $0x10,%ymm5,%ymm10
    5f36:	c5 d5 ef ad 70 0c fd 	vpxor  -0x2f390(%rbp),%ymm5,%ymm5
    5f3d:	ff 
    5f3e:	c4 41 2d ef d4       	vpxor  %ymm12,%ymm10,%ymm10
    5f43:	c5 9d 73 f7 10       	vpsllq $0x10,%ymm7,%ymm12
    5f48:	c4 41 1d ef d8       	vpxor  %ymm8,%ymm12,%ymm11
    5f4d:	c5 7d 6f a5 f0 0c fd 	vmovdqa -0x2f310(%rbp),%ymm12
    5f54:	ff 
    5f55:	c5 45 ef c6          	vpxor  %ymm6,%ymm7,%ymm8
    5f59:	c5 cd 73 d1 10       	vpsrlq $0x10,%ymm1,%ymm6
    5f5e:	c5 7d 7f 85 70 0c fd 	vmovdqa %ymm8,-0x2f390(%rbp)
    5f65:	ff 
    5f66:	c5 bd 73 d4 10       	vpsrlq $0x10,%ymm4,%ymm8
    5f6b:	c4 c1 4d ef fd       	vpxor  %ymm13,%ymm6,%ymm7
    5f70:	c4 c1 45 db f4       	vpand  %ymm12,%ymm7,%ymm6
    5f75:	c5 bd ef bd b0 0c fd 	vpxor  -0x2f350(%rbp),%ymm8,%ymm7
    5f7c:	ff 
    5f7d:	c4 c1 45 db fc       	vpand  %ymm12,%ymm7,%ymm7
    5f82:	c5 9d 73 f6 10       	vpsllq $0x10,%ymm6,%ymm12
    5f87:	c4 c1 4d ef f5       	vpxor  %ymm13,%ymm6,%ymm6
    5f8c:	c5 bd 73 f7 10       	vpsllq $0x10,%ymm7,%ymm8
    5f91:	c5 45 ef ad b0 0c fd 	vpxor  -0x2f350(%rbp),%ymm7,%ymm13
    5f98:	ff 
    5f99:	c5 9d ef c9          	vpxor  %ymm1,%ymm12,%ymm1
    5f9d:	c5 3d ef e4          	vpxor  %ymm4,%ymm8,%ymm12
    5fa1:	c5 7d 6f 85 f0 0c fd 	vmovdqa -0x2f310(%rbp),%ymm8
    5fa8:	ff 
    5fa9:	c5 dd 73 d0 10       	vpsrlq $0x10,%ymm0,%ymm4
    5fae:	c5 dd ef bd 90 0c fd 	vpxor  -0x2f370(%rbp),%ymm4,%ymm7
    5fb5:	ff 
    5fb6:	c5 7d 7f ad b0 0c fd 	vmovdqa %ymm13,-0x2f350(%rbp)
    5fbd:	ff 
    5fbe:	c5 dd 73 d3 10       	vpsrlq $0x10,%ymm3,%ymm4
    5fc3:	c4 41 45 db e8       	vpand  %ymm8,%ymm7,%ymm13
    5fc8:	c5 dd ef bd d0 0c fd 	vpxor  -0x2f330(%rbp),%ymm4,%ymm7
    5fcf:	ff 
    5fd0:	c5 95 ef a5 90 0c fd 	vpxor  -0x2f370(%rbp),%ymm13,%ymm4
    5fd7:	ff 
    5fd8:	c4 c1 45 db f8       	vpand  %ymm8,%ymm7,%ymm7
    5fdd:	c4 c1 3d 73 f5 10    	vpsllq $0x10,%ymm13,%ymm8
    5fe3:	c5 3d ef c0          	vpxor  %ymm0,%ymm8,%ymm8
    5fe7:	c4 c1 15 73 d1 20    	vpsrlq $0x20,%ymm9,%ymm13
    5fed:	c5 fd 73 f7 10       	vpsllq $0x10,%ymm7,%ymm0
    5ff2:	c5 fd ef c3          	vpxor  %ymm3,%ymm0,%ymm0
    5ff6:	c5 c5 ef 9d d0 0c fd 	vpxor  -0x2f330(%rbp),%ymm7,%ymm3
    5ffd:	ff 
    5ffe:	c4 c1 15 ef fe       	vpxor  %ymm14,%ymm13,%ymm7
    6003:	c5 7d 6f ad 10 0c fd 	vmovdqa -0x2f3f0(%rbp),%ymm13
    600a:	ff 
    600b:	c5 fd 7f 9d d0 0c fd 	vmovdqa %ymm3,-0x2f330(%rbp)
    6012:	ff 
    6013:	c4 c1 45 db dd       	vpand  %ymm13,%ymm7,%ymm3
    6018:	c5 c5 73 f3 20       	vpsllq $0x20,%ymm3,%ymm7
    601d:	c4 c1 65 ef de       	vpxor  %ymm14,%ymm3,%ymm3
    6022:	c4 41 7d 6f f5       	vmovdqa %ymm13,%ymm14
    6027:	c4 c1 45 ef f9       	vpxor  %ymm9,%ymm7,%ymm7
    602c:	c4 c1 35 73 d2 20    	vpsrlq $0x20,%ymm10,%ymm9
    6032:	c4 41 35 ef cb       	vpxor  %ymm11,%ymm9,%ymm9
    6037:	c4 41 35 db cd       	vpand  %ymm13,%ymm9,%ymm9
    603c:	c4 c1 15 73 f1 20    	vpsllq $0x20,%ymm9,%ymm13
    6042:	c4 41 35 ef db       	vpxor  %ymm11,%ymm9,%ymm11
    6047:	c4 41 15 ef d2       	vpxor  %ymm10,%ymm13,%ymm10
    604c:	c4 41 30 57 c9       	vxorps %xmm9,%xmm9,%xmm9
    6051:	c4 43 fd 00 cb e0    	vpermq $0xe0,%ymm11,%ymm9
    6057:	c4 41 10 57 ed       	vxorps %xmm13,%xmm13,%xmm13
    605c:	c4 43 fd 00 ea e0    	vpermq $0xe0,%ymm10,%ymm13
    6062:	c4 43 45 02 ed 0c    	vpblendd $0xc,%ymm13,%ymm7,%ymm13
    6068:	c4 41 79 7f ae a0 fd 	vmovdqa %xmm13,-0x260(%r14)
    606f:	ff ff 
    6071:	c4 41 10 57 ed       	vxorps %xmm13,%xmm13,%xmm13
    6076:	c4 63 fd 00 ef f5    	vpermq $0xf5,%ymm7,%ymm13
    607c:	c4 c3 45 46 fa 31    	vperm2i128 $0x31,%ymm10,%ymm7,%ymm7
    6082:	c4 43 15 02 ea fc    	vpblendd $0xfc,%ymm10,%ymm13,%ymm13
    6088:	c4 41 28 57 d2       	vxorps %xmm10,%xmm10,%xmm10
    608d:	c4 63 fd 00 d7 e8    	vpermq $0xe8,%ymm7,%ymm10
    6093:	c4 41 79 7f ae 20 fe 	vmovdqa %xmm13,-0x1e0(%r14)
    609a:	ff ff 
    609c:	c4 41 10 57 ed       	vxorps %xmm13,%xmm13,%xmm13
    60a1:	c4 63 fd 00 ef ed    	vpermq $0xed,%ymm7,%ymm13
    60a7:	c4 c3 65 02 f9 0c    	vpblendd $0xc,%ymm9,%ymm3,%ymm7
    60ad:	c4 41 79 7f 96 a0 fe 	vmovdqa %xmm10,-0x160(%r14)
    60b4:	ff ff 
    60b6:	c4 41 28 57 d2       	vxorps %xmm10,%xmm10,%xmm10
    60bb:	c4 63 fd 00 d3 f5    	vpermq $0xf5,%ymm3,%ymm10
    60c1:	c4 c3 65 46 db 31    	vperm2i128 $0x31,%ymm11,%ymm3,%ymm3
    60c7:	c4 c1 79 7f be e0 fd 	vmovdqa %xmm7,-0x220(%r14)
    60ce:	ff ff 
    60d0:	c4 41 30 57 c9       	vxorps %xmm9,%xmm9,%xmm9
    60d5:	c4 63 fd 00 cb ed    	vpermq $0xed,%ymm3,%ymm9
    60db:	c5 c5 73 d1 20       	vpsrlq $0x20,%ymm1,%ymm7
    60e0:	c4 41 79 7f 8e 60 ff 	vmovdqa %xmm9,-0xa0(%r14)
    60e7:	ff ff 
    60e9:	c4 c1 35 73 d0 20    	vpsrlq $0x20,%ymm8,%ymm9
    60ef:	c4 41 79 7f ae 20 ff 	vmovdqa %xmm13,-0xe0(%r14)
    60f6:	ff ff 
    60f8:	c4 43 2d 02 eb fc    	vpblendd $0xfc,%ymm11,%ymm10,%ymm13
    60fe:	c4 41 45 ef d4       	vpxor  %ymm12,%ymm7,%ymm10
    6103:	c5 b5 ef f8          	vpxor  %ymm0,%ymm9,%ymm7
    6107:	c4 41 79 7f ae 60 fe 	vmovdqa %xmm13,-0x1a0(%r14)
    610e:	ff ff 
    6110:	c4 41 20 57 db       	vxorps %xmm11,%xmm11,%xmm11
    6115:	c4 63 fd 00 db e8    	vpermq $0xe8,%ymm3,%ymm11
    611b:	c4 c1 2d db de       	vpand  %ymm14,%ymm10,%ymm3
    6120:	c4 41 45 db d6       	vpand  %ymm14,%ymm7,%ymm10
    6125:	c4 41 65 ef e4       	vpxor  %ymm12,%ymm3,%ymm12
    612a:	c5 ad ef c0          	vpxor  %ymm0,%ymm10,%ymm0
    612e:	c4 41 79 7f 9e e0 fe 	vmovdqa %xmm11,-0x120(%r14)
    6135:	ff ff 
    6137:	c5 a5 73 f3 20       	vpsllq $0x20,%ymm3,%ymm11
    613c:	c4 c1 65 73 f2 20    	vpsllq $0x20,%ymm10,%ymm3
    6142:	c4 41 28 57 d2       	vxorps %xmm10,%xmm10,%xmm10
    6147:	c4 63 fd 00 d0 e0    	vpermq $0xe0,%ymm0,%ymm10
    614d:	c4 41 65 ef c0       	vpxor  %ymm8,%ymm3,%ymm8
    6152:	c5 a5 ef c9          	vpxor  %ymm1,%ymm11,%ymm1
    6156:	c4 41 20 57 db       	vxorps %xmm11,%xmm11,%xmm11
    615b:	c4 43 fd 00 d8 e0    	vpermq $0xe0,%ymm8,%ymm11
    6161:	c5 c0 57 ff          	vxorps %xmm7,%xmm7,%xmm7
    6165:	c4 e3 fd 00 f9 f5    	vpermq $0xf5,%ymm1,%ymm7
    616b:	c4 43 75 02 cb 0c    	vpblendd $0xc,%ymm11,%ymm1,%ymm9
    6171:	c4 c3 75 46 c8 31    	vperm2i128 $0x31,%ymm8,%ymm1,%ymm1
    6177:	c4 c3 45 02 d8 fc    	vpblendd $0xfc,%ymm8,%ymm7,%ymm3
    617d:	c4 41 20 57 db       	vxorps %xmm11,%xmm11,%xmm11
    6182:	c4 63 fd 00 d9 ed    	vpermq $0xed,%ymm1,%ymm11
    6188:	c5 c0 57 ff          	vxorps %xmm7,%xmm7,%xmm7
    618c:	c4 c3 fd 00 fc f5    	vpermq $0xf5,%ymm12,%ymm7
    6192:	c4 41 79 7f 8e b0 fd 	vmovdqa %xmm9,-0x250(%r14)
    6199:	ff ff 
    619b:	c4 41 38 57 c0       	vxorps %xmm8,%xmm8,%xmm8
    61a0:	c4 63 fd 00 c1 e8    	vpermq $0xe8,%ymm1,%ymm8
    61a6:	c4 41 79 7f 9e 30 ff 	vmovdqa %xmm11,-0xd0(%r14)
    61ad:	ff ff 
    61af:	c5 a5 73 d2 20       	vpsrlq $0x20,%ymm2,%ymm11
    61b4:	c4 43 1d 02 ca 0c    	vpblendd $0xc,%ymm10,%ymm12,%ymm9
    61ba:	c4 63 1d 46 e0 31    	vperm2i128 $0x31,%ymm0,%ymm12,%ymm12
    61c0:	c4 c1 79 7f 9e 30 fe 	vmovdqa %xmm3,-0x1d0(%r14)
    61c7:	ff ff 
    61c9:	c4 e3 45 02 d8 fc    	vpblendd $0xfc,%ymm0,%ymm7,%ymm3
    61cf:	c4 c1 25 ef c7       	vpxor  %ymm15,%ymm11,%ymm0
    61d4:	c5 f0 57 c9          	vxorps %xmm1,%xmm1,%xmm1
    61d8:	c4 c3 fd 00 cc e8    	vpermq $0xe8,%ymm12,%ymm1
    61de:	c4 41 79 7f 86 b0 fe 	vmovdqa %xmm8,-0x150(%r14)
    61e5:	ff ff 
    61e7:	c4 41 7d db ee       	vpand  %ymm14,%ymm0,%ymm13
    61ec:	c4 41 38 57 c0       	vxorps %xmm8,%xmm8,%xmm8
    61f1:	c4 43 fd 00 c4 ed    	vpermq $0xed,%ymm12,%ymm8
    61f7:	c4 41 79 7f 8e f0 fd 	vmovdqa %xmm9,-0x210(%r14)
    61fe:	ff ff 
    6200:	c4 c1 35 73 f5 20    	vpsllq $0x20,%ymm13,%ymm9
    6206:	c4 41 15 ef ff       	vpxor  %ymm15,%ymm13,%ymm15
    620b:	c4 c1 79 7f 9e 70 fe 	vmovdqa %xmm3,-0x190(%r14)
    6212:	ff ff 
    6214:	c5 b5 ef fa          	vpxor  %ymm2,%ymm9,%ymm7
    6218:	c5 ed 73 d5 20       	vpsrlq $0x20,%ymm5,%ymm2
    621d:	c4 c1 79 7f 8e f0 fe 	vmovdqa %xmm1,-0x110(%r14)
    6224:	ff ff 
    6226:	c4 41 10 57 ed       	vxorps %xmm13,%xmm13,%xmm13
    622b:	c4 63 fd 00 ef f5    	vpermq $0xf5,%ymm7,%ymm13
    6231:	c4 41 79 7f 86 70 ff 	vmovdqa %xmm8,-0x90(%r14)
    6238:	ff ff 
    623a:	c5 7d 6f a5 70 0c fd 	vmovdqa -0x2f390(%rbp),%ymm12
    6241:	ff 
    6242:	c4 c1 6d ef dc       	vpxor  %ymm12,%ymm2,%ymm3
    6247:	c4 41 65 db c6       	vpand  %ymm14,%ymm3,%ymm8
    624c:	c4 c1 75 73 f0 20    	vpsllq $0x20,%ymm8,%ymm1
    6252:	c4 41 3d ef e4       	vpxor  %ymm12,%ymm8,%ymm12
    6257:	c5 75 ef dd          	vpxor  %ymm5,%ymm1,%ymm11
    625b:	c4 41 38 57 c0       	vxorps %xmm8,%xmm8,%xmm8
    6260:	c4 43 fd 00 c4 e0    	vpermq $0xe0,%ymm12,%ymm8
    6266:	c5 d0 57 ed          	vxorps %xmm5,%xmm5,%xmm5
    626a:	c4 c3 fd 00 eb e0    	vpermq $0xe0,%ymm11,%ymm5
    6270:	c4 43 15 02 cb fc    	vpblendd $0xfc,%ymm11,%ymm13,%ymm9
    6276:	c4 c3 05 02 c8 0c    	vpblendd $0xc,%ymm8,%ymm15,%ymm1
    627c:	c4 41 79 7f 8e 40 fe 	vmovdqa %xmm9,-0x1c0(%r14)
    6283:	ff ff 
